##############################################################################
#                                                                            #
# IAR Z80/64180 C-Compiler V4.04D/386                                        #
# Front End V4.20N                                     30/Nov/2000  11:27:18 #
# Global Optimizer V1.05D                                                    #
#                                                                            #
#       Target option =  64180                                               #
#       Memory model  =  large                                               #
#       Source file   =  .\src\mcpdisp.c                                     #
#       List file     =  .\obj\mcpdisp.lst                                   #
#       Object file   =  .\obj\mcpdisp.r01                                   #
#       ASM file      =  .\obj\mcpdisp.s01                                   #
#       Command line  =  .\src\mcpDisp.c -o .\obj\mcpDisp.r01 -P -gA -s -v1  #
#                        -rn -ml -I.\inc\ -I..\comminc\ -DSIM=0 -a           #
#                        .\obj\mcpDisp.s01 -l .\obj\mcpDisp.lst -q           #
#                                                                            #
#                                             (c) Copyright IAR Systems 1996 #
##############################################################################

   \   0000                    NAME    mcpdisp(16)
   \   0000                    RSEG    CODE(0)
   \   0000                    RSEG    CONST(0)
   \   0000                    RSEG    UDATA0(0)
   \   0000                    PUBLIC  blinkPositionCheck
   \   0000                    PUBLIC  blinkPositionData
   \   0000                    PUBLIC  matrix_blink
   \   0000                    PUBLIC  matrix_led
   \   0000                    PUBLIC  mcpBlinkCount
   \   0000                    PUBLIC  mcpDynamicScanDisplay
   \   0000                    PUBLIC  mcpGetFont
   \   0000                    PUBLIC  now_matrix_blink
   \   0000                    PUBLIC  now_matrix_led
   \   0000                    PUBLIC  now_sw_blink
   \   0000                    PUBLIC  now_sw_led
   \   0000                    PUBLIC  rawData
   \   0000                    PUBLIC  sw_blink
   \   0000                    PUBLIC  sw_led
   \   0000                    EXTERN  watch_dog_reset
   \   0000                    EXTERN  ?CL64180L_4_04_L00
   \   0000                    EXTERN  ?C_LSH_L01
   \   0000                    EXTERN  ?SS_RSH_L02
   \   0000                    EXTERN  ?S_MUL_L02
   \   0000                    RSEG    CODE
   \   0000            mcpGetFont:
      1          /********************************************************************
      2                  üyŹüŹ`Ænē║ōSī³é»Ä®ō«Ś±ÄįĢ·æŚÉ¦īõæĢÆuüz
      3          *-------------------------------------------------------------------*
      4                  Æ╩ÉMÉ¦īõāéāWāģü[āŗ
      5          *-------------------------------------------------------------------*
      6                  Author          TOA Corporation
      7          
      8                  Revision        a00. 2000/06/27         K.Honda
      9          
     10          *********************************************************************/
     11          
     12          #include "IOFUNC.h"
     13          
     14          #include "COMMDEF.h"
     15          
     16          /*@@@S*/
     17          /*üEüEüEüEüEüEüEüEüEüEüEüEüEüEüEüEüEüEüEüEüEüEüEüEüEüEüEüEüEüEüEüEüEüEüEüEüEüE
     18                  āOāŹü[āoāŗĢŽÉö
     19          üEüEüEüEüEüEüEüEüEüEüEüEüEüEüEüEüEüEüEüEüEüEüEüEüEüEüEüEüEüEüEüEüEüEüEüEüEüE*/
     20          
     21          /** Ģ\Ä”āfü[ā^ **/
     22          short   sw_led;                         /*āXāCābā`ékédéc*/
     23          #define SWLED_HL        0x02
     24          
     25          char    matrix_led[4][6];       /*éUéśéSā}āgāŖābāNāXékédéc*/
     26          short   sw_blink;                       /*āXāCābā`ō_¢┼āfü[ā^*/
     27          char    matrix_blink[4];        /*éUéśéSā}āgāŖābāNāXō_¢┼āfü[ā^*/
     28          
     29          
     30          short   now_sw_led;                             /*ī╗Ź▌Ģ\Ä”ÆåüAāXāCābā`ékédéc*/
     31          char    now_matrix_led[4][6];   /*ī╗Ź▌Ģ\Ä”ÆåüAéUéśéSā}āgāŖābāNāXékédéc*/
     32          short   now_sw_blink;
     33          char    now_matrix_blink[4];
     34          
     35          /** Ģ\Ä”ÅoŚ═āfü[ā^ **/
     36          char    rawData[16][10];                        /* éqé`évāfü[ā^ */
     37          char    blinkPositionData[16][10];      /*ō_¢┼ł╩Æuāfü[ā^*/
     38          
     39          char    blinkPositionCheck;                     /*ō_¢┼ö╗ÆĶāfü[ā^*/
     40          
     41          /*üEüEüEüEüEüEüEüEüEüEüEüEüEüEüEüEüEüEüEüEüEüEüEüEüEüEüEüEüEüEüEüEüEüEüEüEüEüE
     42                  āŹü[āJāŗÆĶÉöÆĶŗ`
     43          üEüEüEüEüEüEüEüEüEüEüEüEüEüEüEüEüEüEüEüEüEüEüEüEüEüEüEüEüEüEüEüEüEüEüEüEüEüE*/
     44          
     45          /*üEüEüEüEüEüEüEüEüEüEüEüEüEüEüEüEüEüEüEüEüEüEüEüEüEüEüEüEüEüEüEüEüEüEüEüEüEüE
     46                  āŹü[āJāŗŹ\æóæ╠ÆĶŗ`
     47          üEüEüEüEüEüEüEüEüEüEüEüEüEüEüEüEüEüEüEüEüEüEüEüEüEüEüEüEüEüEüEüEüEüEüEüEüEüE*/
     48          
     49          /*üEüEüEüEüEüEüEüEüEüEüEüEüEüEüEüEüEüEüEüEüEüEüEüEüEüEüEüEüEüEüEüEüEüEüEüEüEüE
     50                  āŹü[āJāŗāeü[āuāŗ
     51          üEüEüEüEüEüEüEüEüEüEüEüEüEüEüEüEüEüEüEüEüEüEüEüEüEüEüEüEüEüEüEüEüEüEüEüEüEüE*/
     52          
     53          static  const   char    font_data[][5] = {
     54          {       0x00, 0x00, 0x00, 0x00, 0x00 },                 /* 00h */
     55          {       0x00, 0x00, 0x00, 0x00, 0x00 },                 /* 01h */
     56          {       0x00, 0x00, 0x00, 0x00, 0x00 },                 /* 02h */
     57          {       0x00, 0x00, 0x00, 0x00, 0x00 },                 /* 03h */
     58          {       0x00, 0x00, 0x00, 0x00, 0x00 },                 /* 04h */
     59          {       0x00, 0x00, 0x00, 0x00, 0x00 },                 /* 05h */
     60          {       0x00, 0x00, 0x00, 0x00, 0x00 },                 /* 06h */
     61          {       0x00, 0x00, 0x00, 0x00, 0x00 },                 /* 07h */
     62          {       0x00, 0x00, 0x00, 0x00, 0x00 },                 /* 08h */
     63          {       0x00, 0x00, 0x00, 0x00, 0x00 },                 /* 09h */
     64          {       0x00, 0x00, 0x00, 0x00, 0x00 },                 /* 0Ah */
     65          {       0x00, 0x00, 0x00, 0x00, 0x00 },                 /* 0Bh */
     66          {       0x00, 0x00, 0x00, 0x00, 0x00 },                 /* 0Ch */
     67          {       0x00, 0x00, 0x00, 0x00, 0x00 },                 /* 0Dh */
     68          {       0x00, 0x00, 0x00, 0x00, 0x00 },                 /* 0Eh */
     69          {       0x00, 0x00, 0x00, 0x00, 0x00 },                 /* 0Fh */
     70          {       0x00, 0x00, 0x00, 0x00, 0x00 },                 /* 10h */
     71          {       0x00, 0x00, 0x00, 0x00, 0x00 },                 /* 11h */
     72          {       0x00, 0x00, 0x00, 0x00, 0x00 },                 /* 12h */
     73          {       0x00, 0x00, 0x00, 0x00, 0x00 },                 /* 13h */
     74          {       0x00, 0x00, 0x00, 0x00, 0x00 },                 /* 14h */
     75          {       0x00, 0x00, 0x00, 0x00, 0x00 },                 /* 15h */
     76          {       0x00, 0x00, 0x00, 0x00, 0x00 },                 /* 16h */
     77          {       0x00, 0x00, 0x00, 0x00, 0x00 },                 /* 17h */
     78          {       0x00, 0x00, 0x00, 0x00, 0x00 },                 /* 18h */
     79          {       0x00, 0x00, 0x00, 0x00, 0x00 },                 /* 19h */
     80          {       0x00, 0x00, 0x00, 0x00, 0x00 },                 /* 1Ah */
     81          {       0x00, 0x00, 0x00, 0x00, 0x00 },                 /* 1Bh */
     82          {       0x00, 0x00, 0x00, 0x00, 0x00 },                 /* 1Ch */
     83          {       0x00, 0x00, 0x00, 0x00, 0x00 },                 /* 1Dh */
     84          {       0x00, 0x00, 0x00, 0x00, 0x00 },                 /* 1Eh */
     85          {       0x00, 0x00, 0x00, 0x00, 0x00 },                 /* 1Fh */
     86          {       0x00, 0x00, 0x00, 0x00, 0x00 },                 /* 20h
     87                                                                                                                  _____
     88                                                                                                                  _____
     89                                                                                                                  _____
     90                                                                                                                  _____
     91                                                                                                                  _____
     92                                                                                                                  _____
     93                                                                                                                  _____
     94                                                                                                                  _____
     95                                                                                                  */
     96          {       0x00, 0x00, 0x9E, 0x00, 0x00 },                 /* 21h 
     97                                                                                                                  _____
     98                                                                                                                  __*__
     99                                                                                                                  __*__
    100                                                                                                                  __*__
    101                                                                                                                  __*__
    102                                                                                                                  _____
    103                                                                                                                  _____
    104                                                                                                                  __*__
    105                                                                                                  */
    106          {       0x00, 0x0E, 0x00, 0x0E, 0x00 },                 /* 22h 
    107                                                                                                                  _____
    108                                                                                                                  _*_*_
    109                                                                                                                  _*_*_
    110                                                                                                                  _*_*_
    111                                                                                                                  _____
    112                                                                                                                  _____
    113                                                                                                                  _____
    114                                                                                                                  _____
    115                                                                                                  */
    116          {       0x28, 0xFE, 0x28, 0xFE, 0x28 },                 /* 23h 
    117                                                                                                                  _____
    118                                                                                                                  _*_*_
    119                                                                                                                  _*_*_
    120                                                                                                                  *****
    121                                                                                                                  _*_*_
    122                                                                                                                  *****
    123                                                                                                                  _*_*_
    124                                                                                                                  _*_*_
    125                                                                                                  */
    126          {       0x48, 0x54, 0xFE, 0x54, 0x24 },                 /* 24h
    127                                                                                                                  _____
    128                                                                                                                  __*__
    129                                                                                                                  _****
    130                                                                                                                  *_*__
    131                                                                                                                  _***_
    132                                                                                                                  __*_*
    133                                                                                                                  ****_
    134                                                                                                                  __*__
    135                                                                                                  */
    136          {       0x86, 0x66, 0x10, 0xCC, 0xC2 },                 /* 25h
    137                                                                                                                  _____
    138                                                                                                                  **__*
    139                                                                                                                  **_*_
    140                                                                                                                  ___*_
    141                                                                                                                  __*__
    142                                                                                                                  _*___
    143                                                                                                                  _*_**
    144                                                                                                                  *__**
    145                                                                                                  */
    146          {       0x68, 0x94, 0xB4, 0x68, 0xA0 },                 /* 26h
    147                                                                                                                  _____
    148                                                                                                                  _____
    149                                                                                                                  _**__
    150                                                                                                                  *__*_
    151                                                                                                                  _**__
    152                                                                                                                  *_***
    153                                                                                                                  *__*_
    154                                                                                                                  _**_*
    155                                                                                                  */
    156          {       0x00, 0x08, 0x04, 0x02, 0x00 },                 /* 27h 
    157                                                                                                                  _____
    158                                                                                                                  ___*_
    159                                                                                                                  __*__
    160                                                                                                                  _*___
    161                                                                                                                  _____
    162                                                                                                                  _____
    163                                                                                                                  _____
    164                                                                                                                  _____
    165                                                                                                  */
    166          {       0x38, 0x44, 0x82, 0x00, 0x00 },                 /* 28h
    167                                                                                                                  _____
    168                                                                                                                  __*__
    169                                                                                                                  _*___
    170                                                                                                                  *____
    171                                                                                                                  *____
    172                                                                                                                  *____
    173                                                                                                                  _*___
    174                                                                                                                  __*__
    175                                                                                                  */
    176          {       0x00, 0x00, 0x82, 0x44, 0x38 },                 /* 29h 
    177                                                                                                                  _____
    178                                                                                                                  __*__
    179                                                                                                                  ___*_
    180                                                                                                                  ____*
    181                                                                                                                  ____*
    182                                                                                                                  ____*
    183                                                                                                                  ___*_
    184                                                                                                                  __*__
    185                                                                                                  */
    186          {       0x54, 0x38, 0xFE, 0x38, 0x54 },                 /* 2Ah 
    187                                                                                                                  _____
    188                                                                                                                  __*__
    189                                                                                                                  *_*_*
    190                                                                                                                  _***_
    191                                                                                                                  *****
    192                                                                                                                  _***_
    193                                                                                                                  *_*_*
    194                                                                                                                  __*__
    195                                                                                                  */
    196          {       0x10, 0x10, 0x7C, 0x10, 0x10 },                 /* 2Bh 
    197                                                                                                                  _____
    198                                                                                                                  _____
    199                                                                                                                  __*__
    200                                                                                                                  __*__
    201                                                                                                                  *****
    202                                                                                                                  __*__
    203                                                                                                                  __*__
    204                                                                                                                  _____
    205                                                                                                  */
    206          {       0x00, 0x80, 0x60, 0x00, 0x00 },                 /* 2Ch 
    207                                                                                                                  _____
    208                                                                                                                  _____
    209                                                                                                                  _____
    210                                                                                                                  _____
    211                                                                                                                  _____
    212                                                                                                                  __*__
    213                                                                                                                  __*__
    214                                                                                                                  _*___
    215                                                                                                  */
    216          {       0x10, 0x10, 0x10, 0x10, 0x10 },                 /* 2Dh 
    217                                                                                                                  _____
    218                                                                                                                  _____
    219                                                                                                                  _____
    220                                                                                                                  _____
    221                                                                                                                  *****
    222                                                                                                                  _____
    223                                                                                                                  _____
    224                                                                                                                  _____
    225                                                                                                  */
    226          {       0x00, 0x00, 0x60, 0x60, 0x00 },                 /* 2Eh
    227                                                                                                                  _____
    228                                                                                                                  _____
    229                                                                                                                  _____
    230                                                                                                                  _____
    231                                                                                                                  _____
    232                                                                                                                  __**_
    233                                                                                                                  __**_
    234                                                                                                                  _____
    235                                                                                                  */
    236          {       0x80, 0x60, 0x10, 0x0C, 0x02 },                 /* 2Fh 
    237                                                                                                                  _____
    238                                                                                                                  ____*
    239                                                                                                                  ___*_
    240                                                                                                                  ___*_
    241                                                                                                                  __*__
    242                                                                                                                  _*___
    243                                                                                                                  _*___
    244                                                                                                                  *____
    245                                                                                                  */
    246          {       0x7C, 0xA2, 0x92, 0x8A, 0x7C },                 /* 30h 
    247                                                                                                                  _____
    248                                                                                                                  _***_
    249                                                                                                                  *___*
    250                                                                                                                  *__**
    251                                                                                                                  *_*_*
    252                                                                                                                  **__*
    253                                                                                                                  *___*
    254                                                                                                                  _***_
    255                                                                                                  */
    256          {       0x88, 0x84, 0xFE, 0x80, 0x80 },                 /* 31h 
    257                                                                                                                  _____
    258                                                                                                                  __*__
    259                                                                                                                  _**__
    260                                                                                                                  *_*__
    261                                                                                                                  __*__
    262                                                                                                                  __*__
    263                                                                                                                  __*__
    264                                                                                                                  *****
    265                                                                                                  */
    266          {       0xC4, 0xA2, 0xB2, 0x92, 0x8C },                 /* 32h 
    267                                                                                                                  _____
    268                                                                                                                  _***_
    269                                                                                                                  *___*
    270                                                                                                                  ____*
    271                                                                                                                  __**_
    272                                                                                                                  _**__
    273                                                                                                                  *____
    274                                                                                                                  *****
    275                                                                                                  */
    276          {       0x44, 0x92, 0x92, 0x92, 0x6C },                 /* 33h 
    277                                                                                                                  _____
    278                                                                                                                  _***_
    279                                                                                                                  *___*
    280                                                                                                                  ____*
    281                                                                                                                  _***_
    282                                                                                                                  ____*
    283                                                                                                                  *___*
    284                                                                                                                  _***_
    285                                                                                                  */
    286          {       0x30, 0x28, 0x24, 0xFE, 0x20 },                 /* 34h 
    287                                                                                                                  _____
    288                                                                                                                  ___*_
    289                                                                                                                  __**_
    290                                                                                                                  _*_*_
    291                                                                                                                  *__*_
    292                                                                                                                  *****
    293                                                                                                                  ___*_
    294                                                                                                                  ___*_
    295                                                                                                  */
    296          {       0x4E, 0x8A, 0x8A, 0x8A, 0x72 },                 /* 35h 
    297                                                                                                                  _____
    298                                                                                                                  *****
    299                                                                                                                  *____
    300                                                                                                                  ****_
    301                                                                                                                  ____*
    302                                                                                                                  ____*
    303                                                                                                                  *___*
    304                                                                                                                  _***_
    305                                                                                                  */
    306          {       0x7C, 0x92, 0x92, 0x92, 0x60 },                 /* 36h 
    307                                                                                                                  _____
    308                                                                                                                  _***_
    309                                                                                                                  *____
    310                                                                                                                  *____
    311                                                                                                                  ****_
    312                                                                                                                  *___*
    313                                                                                                                  *___*
    314                                                                                                                  _***_
    315                                                                                                  */
    316          {       0x06, 0x02, 0xE2, 0x12, 0x0E },                 /* 37h 
    317                                                                                                                  _____
    318                                                                                                                  *****
    319                                                                                                                  *___*
    320                                                                                                                  ____*
    321                                                                                                                  ___*_
    322                                                                                                                  __*__
    323                                                                                                                  __*__
    324                                                                                                                  __*__
    325                                                                                                  */
    326          {       0x6C, 0x92, 0x92, 0x92, 0x6C },                 /* 38h 
    327                                                                                                                  _____
    328                                                                                                                  _***_
    329                                                                                                                  *___*
    330                                                                                                                  *___*
    331                                                                                                                  _***_
    332                                                                                                                  *___*
    333                                                                                                                  *___*
    334                                                                                                                  _***__
    335                                                                                                  */
    336          {       0x0C, 0x92, 0x92, 0x92, 0x7C },                 /* 39h
    337                                                                                                                  _____
    338                                                                                                                  _***_
    339                                                                                                                  *___*
    340                                                                                                                  *___*
    341                                                                                                                  _****
    342                                                                                                                  ____*
    343                                                                                                                  ____*
    344                                                                                                                  _***_
    345                                                                                                  */
    346          {       0x00, 0x00, 0x28, 0x00, 0x00 },                 /* 3Ah
    347                                                                                                                  _____
    348                                                                                                                  _____
    349                                                                                                                  _____
    350                                                                                                                  __*__
    351                                                                                                                  _____
    352                                                                                                                  __*__
    353                                                                                                                  _____
    354                                                                                                                  _____
    355                                                                                                  */
    356          {       0x00, 0x80, 0x68, 0x00, 0x00 },                 /* 3Bh 
    357                                                                                                                  _____
    358                                                                                                                  _____
    359                                                                                                                  _____
    360                                                                                                                  __*__
    361                                                                                                                  _____
    362                                                                                                                  __*__
    363                                                                                                                  __*__
    364                                                                                                                  _*___
    365                                                                                                  */
    366          {       0x10, 0x38, 0x6C, 0xC6, 0x82 },                 /* 3Ch 
    367                                                                                                                  _____
    368                                                                                                                  ___**
    369                                                                                                                  __**_
    370                                                                                                                  _**__
    371                                                                                                                  **___
    372                                                                                                                  _**__
    373                                                                                                                  __**_
    374                                                                                                                  ___**
    375                                                                                                  */
    376          {       0x28, 0x28, 0x28, 0x28, 0x28 },                 /* 3Dh 
    377                                                                                                                  _____
    378                                                                                                                  _____
    379                                                                                                                  _____
    380                                                                                                                  *****
    381                                                                                                                  _____
    382                                                                                                                  *****
    383                                                                                                                  _____
    384                                                                                                                  _____
    385                                                                                                  */
    386          {       0x82, 0xC6, 0x6C, 0x38, 0x10 },                 /* 3Eh
    387                                                                                                                  _____
    388                                                                                                                  **___
    389                                                                                                                  _**__
    390                                                                                                                  __**_
    391                                                                                                                  ___**
    392                                                                                                                  __**_
    393                                                                                                                  _**__
    394                                                                                                                  **___
    395                                                                                                  */
    396          {       0x04, 0x02, 0xB2, 0x0A, 0x04 },                 /* 3Fh 
    397                                                                                                                  _____
    398                                                                                                                  _***_
    399                                                                                                                  *___*
    400                                                                                                                  ___*_
    401                                                                                                                  __*__
    402                                                                                                                  __*__
    403                                                                                                                  _____
    404                                                                                                                  __*___
    405                                                                                                  */
    406          {       0x38, 0x54, 0xAA, 0xA2, 0x9C },                 /* 40h 
    407                                                                                                                  _____
    408                                                                                                                  __**_
    409                                                                                                                  _*__*
    410                                                                                                                  *_*_*
    411                                                                                                                  **__*
    412                                                                                                                  *_**_
    413                                                                                                                  _*___
    414                                                                                                                  __***
    415                                                                                                  */
    416          {       0xF8, 0x14, 0x12, 0x14, 0xF8 },                 /* 41h 
    417                                                                                                                  _____
    418                                                                                                                  __*__
    419                                                                                                                  _*_*_
    420                                                                                                                  *___*
    421                                                                                                                  *****
    422                                                                                                                  *___*
    423                                                                                                                  *___*
    424                                                                                                                  *___*
    425                                                                                                  */
    426          {       0x82, 0xFE, 0x92, 0x92, 0x6C },                 /* 42h 
    427                                                                                                                  _____
    428                                                                                                                  ****_
    429                                                                                                                  _*__*
    430                                                                                                                  _*__*
    431                                                                                                                  _***_
    432                                                                                                                  _*__*
    433                                                                                                                  _*__*
    434                                                                                                                  ****_
    435                                                                                                  */
    436          {       0x38, 0x44, 0x82, 0x82, 0x44 },                 /* 43h
    437                                                                                                                  _____
    438                                                                                                                  __**_
    439                                                                                                                  _*__*
    440                                                                                                                  *____
    441                                                                                                                  *____
    442                                                                                                                  *____
    443                                                                                                                  _*__*
    444                                                                                                                  __**_
    445                                                                                                  */
    446          {       0x82, 0xFE, 0x82, 0x44, 0x38 },                 /* 44h 
    447                                                                                                                  _____
    448                                                                                                                  ***__
    449                                                                                                                  _*_*_
    450                                                                                                                  _*__*
    451                                                                                                                  _*__*
    452                                                                                                                  _*__*
    453                                                                                                                  _*_*_
    454                                                                                                                  ***__
    455                                                                                                  */
    456          {       0xFE, 0x92, 0x92, 0x92, 0x82 },                 /* 45h 
    457                                                                                                                  _____
    458                                                                                                                  *****
    459                                                                                                                  *____
    460                                                                                                                  *____
    461                                                                                                                  ****_
    462                                                                                                                  *____
    463                                                                                                                  *____
    464                                                                                                                  *****
    465                                                                                                  */
    466          {       0xFE, 0x12, 0x12, 0x12, 0x02 },                 /* 46h 
    467                                                                                                                  _____
    468                                                                                                                  *****
    469                                                                                                                  *____
    470                                                                                                                  *____
    471                                                                                                                  ****_
    472                                                                                                                  *____
    473                                                                                                                  *____
    474                                                                                                                  *____
    475                                                                                                  */
    476          {       0x7C, 0x82, 0x92, 0x92, 0x74 },                 /* 47h 
    477                                                                                                                  _____
    478                                                                                                                  _***_
    479                                                                                                                  *___*
    480                                                                                                                  *____
    481                                                                                                                  *_***
    482                                                                                                                  *___*
    483                                                                                                                  *___*
    484                                                                                                                  _***_
    485                                                                                                  */
    486          {       0xFE, 0x10, 0x10, 0x10, 0xFE },                 /* 48h 
    487                                                                                                                  _____
    488                                                                                                                  *___*
    489                                                                                                                  *___*
    490                                                                                                                  *___*
    491                                                                                                                  *****
    492                                                                                                                  *___*
    493                                                                                                                  *___*
    494                                                                                                                  *___*
    495                                                                                                  */
    496          {       0x00, 0x82, 0xFE, 0x82, 0x00 },                 /* 49h 
    497                                                                                                                  _____
    498                                                                                                                  _***_
    499                                                                                                                  __*__
    500                                                                                                                  __*__
    501                                                                                                                  __*__
    502                                                                                                                  __*__
    503                                                                                                                  __*__
    504                                                                                                                  _***_
    505                                                                                                  */
    506          {       0x40, 0x80, 0x82, 0xFE, 0x02 },                 /* 4Ah 
    507                                                                                                                  _____
    508                                                                                                                  __***
    509                                                                                                                  ___*_
    510                                                                                                                  ___*_
    511                                                                                                                  ___*_
    512                                                                                                                  ___*_
    513                                                                                                                  *__*_
    514                                                                                                                  _***_
    515                                                                                                  */
    516          {       0xFE, 0x10, 0x38, 0x44, 0x82 },                 /* 4Bh 
    517                                                                                                                  _____
    518                                                                                                                  *___*
    519                                                                                                                  *__*_
    520                                                                                                                  *_*__
    521                                                                                                                  ***__
    522                                                                                                                  *_*__
    523                                                                                                                  *__*_
    524                                                                                                                  *___*
    525                                                                                                  */
    526          {       0xFE, 0x80, 0x80, 0x80, 0x80 },                 /* 4Ch
    527                                                                                                                  _____
    528                                                                                                                  *____
    529                                                                                                                  *____
    530                                                                                                                  *____
    531                                                                                                                  *____
    532                                                                                                                  *____
    533                                                                                                                  *____
    534                                                                                                                  *****
    535                                                                                                  */
    536          {       0xFE, 0x04, 0x18, 0x04, 0xFE },                 /* 4Dh 
    537                                                                                                                  _____
    538                                                                                                                  *___*
    539                                                                                                                  **_**
    540                                                                                                                  *_*_*
    541                                                                                                                  *_*_*
    542                                                                                                                  *___*
    543                                                                                                                  *___*
    544                                                                                                                  *___*
    545                                                                                                  */
    546          {       0xFE, 0x0C, 0x10, 0x60, 0xFE },                 /* 4Eh 
    547                                                                                                                  _____
    548                                                                                                                  *___*
    549                                                                                                                  **__*
    550                                                                                                                  **__*
    551                                                                                                                  *_*_*
    552                                                                                                                  *__**
    553                                                                                                                  *__**
    554                                                                                                                  *___*
    555                                                                                                  */
    556          {       0x38, 0x44, 0x82, 0x44, 0x38 },                 /* 4Fh 
    557                                                                                                                  _____
    558                                                                                                                  __*__
    559                                                                                                                  _*_*_
    560                                                                                                                  *___*
    561                                                                                                                  *___*
    562                                                                                                                  *___*
    563                                                                                                                  _*_*_
    564                                                                                                                  __*__
    565                                                                                                  */
    566          {       0xFE, 0x12, 0x12, 0x12, 0x0C },                 /* 50h 
    567                                                                                                                  _____
    568                                                                                                                  ****_
    569                                                                                                                  *___*
    570                                                                                                                  *___*
    571                                                                                                                  ****_
    572                                                                                                                  *____
    573                                                                                                                  *____
    574                                                                                                                  *____
    575                                                                                                  */
    576          {       0x38, 0x44, 0xA2, 0x44, 0xB8 },                 /* 51h 
    577                                                                                                                  _____
    578                                                                                                                  __*__
    579                                                                                                                  _*_*_
    580                                                                                                                  *___*
    581                                                                                                                  *___*
    582                                                                                                                  *_*_*
    583                                                                                                                  _*_*_
    584                                                                                                                  __*_*
    585                                                                                                  */
    586          {       0xFE, 0x12, 0x32, 0x52, 0x8C },                 /* 52h 
    587                                                                                                                  _____
    588                                                                                                                  ****_
    589                                                                                                                  *___*
    590                                                                                                                  *___*
    591                                                                                                                  ****_
    592                                                                                                                  *_*__
    593                                                                                                                  *__*_
    594                                                                                                                  *___*
    595                                                                                                  */
    596          {       0x4C, 0x92, 0x92, 0x92, 0x64 },                 /* 53h 
    597                                                                                                                  _____
    598                                                                                                                  _***_
    599                                                                                                                  *___*
    600                                                                                                                  *____
    601                                                                                                                  _***_
    602                                                                                                                  ____*
    603                                                                                                                  *___*
    604                                                                                                                  _***_
    605                                                                                                  */
    606          {       0x02, 0x02, 0xFE, 0x02, 0x02 },                 /* 54h 
    607                                                                                                                  _____
    608                                                                                                                  *****
    609                                                                                                                  __*__
    610                                                                                                                  __*__
    611                                                                                                                  __*__
    612                                                                                                                  __*__
    613                                                                                                                  __*__
    614                                                                                                                  __*__
    615                                                                                                  */
    616          {       0x7E, 0x80, 0x80, 0x80, 0x7E },                 /* 55h 
    617                                                                                                                  _____
    618                                                                                                                  *___*
    619                                                                                                                  *___*
    620                                                                                                                  *___*
    621                                                                                                                  *___*
    622                                                                                                                  *___*
    623                                                                                                                  *___*
    624                                                                                                                  _***_
    625                                                                                                  */
    626          {       0x0E, 0x70, 0x80, 0x70, 0x0E },                 /* 56h 
    627                                                                                                                  _____
    628                                                                                                                  *___*
    629                                                                                                                  *___*
    630                                                                                                                  *___*
    631                                                                                                                  _*_*_
    632                                                                                                                  _*_*_
    633                                                                                                                  _*_*_
    634                                                                                                                  __*__
    635                                                                                                  */
    636          {       0xFE, 0x40, 0x30, 0x40, 0xFE },                 /* 57h 
    637                                                                                                                  _____
    638                                                                                                                  *___*
    639                                                                                                                  *___*
    640                                                                                                                  *___*
    641                                                                                                                  *_*_*
    642                                                                                                                  *_*_*
    643                                                                                                                  **_**
    644                                                                                                                  *___*
    645                                                                                                  */
    646          {       0xC6, 0x28, 0x10, 0x28, 0xC6 },                 /* 58h 
    647                                                                                                                  _____
    648                                                                                                                  *___*
    649                                                                                                                  *___*
    650                                                                                                                  _*_*_
    651                                                                                                                  __*__
    652                                                                                                                  _*_*_
    653                                                                                                                  *___*
    654                                                                                                                  *___*
    655                                                                                                  */
    656          {       0x0E, 0x10, 0xE0, 0x10, 0x0E },                 /* 59h 
    657                                                                                                                  _____
    658                                                                                                                  *___*
    659                                                                                                                  *___*
    660                                                                                                                  *___*
    661                                                                                                                  _*_*_
    662                                                                                                                  __*__
    663                                                                                                                  __*__
    664                                                                                                                  __*__
    665                                                                                                  */
    666          {       0xC2, 0xA2, 0x92, 0x8A, 0x86 },                 /* 5Ah 
    667                                                                                                                  _____
    668                                                                                                                  *****
    669                                                                                                                  ____*
    670                                                                                                                  ___*_
    671                                                                                                                  __*__
    672                                                                                                                  _*___
    673                                                                                                                  *____
    674                                                                                                                  *****
    675                                                                                                  */
    676          {       0x00, 0xFE, 0x82, 0x82, 0x00 },                 /* 5Bh 
    677                                                                                                                  _____
    678                                                                                                                  _***_
    679                                                                                                                  _*___
    680                                                                                                                  _*___
    681                                                                                                                  _*___
    682                                                                                                                  _*___
    683                                                                                                                  _*___
    684                                                                                                                  _***_
    685                                                                                                  */
    686          {       0x56, 0x58, 0xF0, 0x58, 0x56 },                 /* 5Ch 
    687                                                                                                                  _____
    688                                                                                                                  *___*
    689                                                                                                                  *___*
    690                                                                                                                  _*_*_
    691                                                                                                                  *****
    692                                                                                                                  __*__
    693                                                                                                                  *****
    694                                                                                                                  __*__
    695                                                                                                  */
    696          {       0x00, 0x82, 0x82, 0xFE, 0x00 },                 /* 5Dh 
    697                                                                                                                  _____
    698                                                                                                                  _***_
    699                                                                                                                  ___*_
    700                                                                                                                  ___*_
    701                                                                                                                  ___*_
    702                                                                                                                  ___*_
    703                                                                                                                  ___*_
    704                                                                                                                  _***_
    705                                                                                                  */
    706          {       0x08, 0x04, 0x02, 0x04, 0x08 },                 /* 5Eh 
    707                                                                                                                  _____
    708                                                                                                                  __*__
    709                                                                                                                  _*_*_
    710                                                                                                                  *___*
    711                                                                                                                  _____
    712                                                                                                                  _____
    713                                                                                                                  _____
    714                                                                                                                  _____
    715                                                                                                  */
    716          {       0x80, 0x80, 0x80, 0x80, 0x80 },                 /* 5Fh 
    717                                                                                                                  _____
    718                                                                                                                  _____
    719                                                                                                                  _____
    720                                                                                                                  _____
    721                                                                                                                  _____
    722                                                                                                                  _____
    723                                                                                                                  _____
    724                                                                                                                  *****
    725                                                                                                  */
    726          {       0x00, 0x00, 0x02, 0x04, 0x08 },                 /* 60h 
    727                                                                                                                  _____
    728                                                                                                                  __*__
    729                                                                                                                  ___*_
    730                                                                                                                  ____*
    731                                                                                                                  _____
    732                                                                                                                  _____
    733                                                                                                                  _____
    734                                                                                                                  _____
    735                                                                                                  */
    736          {       0x40, 0xA8, 0xA8, 0x78, 0x80 },                 /* 61h 
    737                                                                                                                  _____
    738                                                                                                                  _____
    739                                                                                                                  _____
    740                                                                                                                  _***_
    741                                                                                                                  ___*_
    742                                                                                                                  _***_
    743                                                                                                                  *__*_
    744                                                                                                                  _**_*
    745                                                                                                  */
    746          {       0xFC, 0x20, 0x90, 0x90, 0x60 },                 /* 62h 
    747                                                                                                                  _____
    748                                                                                                                  _____
    749                                                                                                                  *____
    750                                                                                                                  *____
    751                                                                                                                  *_**_
    752                                                                                                                  **__*
    753                                                                                                                  *___*
    754                                                                                                                  *_**_
    755                                                                                                  */
    756          {       0x70, 0x88, 0x88, 0x88, 0x50 },                 /* 63h 
    757                                                                                                                  _____
    758                                                                                                                  _____
    759                                                                                                                  _____
    760                                                                                                                  _***_
    761                                                                                                                  *___*
    762                                                                                                                  *____
    763                                                                                                                  *___*
    764                                                                                                                  _***_
    765                                                                                                  */
    766          {       0x60, 0x90, 0x90, 0x20, 0xFC },                 /* 64h 
    767                                                                                                                  _____
    768                                                                                                                  _____
    769                                                                                                                  ____*
    770                                                                                                                  ____*
    771                                                                                                                  _**_*
    772                                                                                                                  *__**
    773                                                                                                                  *___*
    774                                                                                                                  _**_*
    775                                                                                                  */
    776          {       0x70, 0xA8, 0xA8, 0xA8, 0x30 },                 /* 65h 
    777                                                                                                                  _____
    778                                                                                                                  _____
    779                                                                                                                  _____
    780                                                                                                                  _***_
    781                                                                                                                  *___*
    782                                                                                                                  *****
    783                                                                                                                  *____
    784                                                                                                                  _***_
    785                                                                                                  */
    786          {       0x10, 0x10, 0xFE, 0x12, 0x14 },                 /* 66h 
    787                                                                                                                  _____
    788                                                                                                                  __**_
    789                                                                                                                  __*_*
    790                                                                                                                  __*__
    791                                                                                                                  *****
    792                                                                                                                  __*__
    793                                                                                                                  __*__
    794                                                                                                                  __*__
    795                                                                                                  */
    796          {       0x18, 0xA4, 0xA4, 0x98, 0x7C },                 /* 67h 
    797                                                                                                                  _____
    798                                                                                                                  _____
    799                                                                                                                  _**_*
    800                                                                                                                  *__**
    801                                                                                                                  *__**
    802                                                                                                                  _**_*
    803                                                                                                                  ____*
    804                                                                                                                  _***_
    805                                                                                                  */
    806          {       0xFC, 0x20, 0x10, 0x10, 0xE0 },                 /* 68h 
    807                                                                                                                  _____
    808                                                                                                                  _____
    809                                                                                                                  *____
    810                                                                                                                  *____
    811                                                                                                                  *_**_
    812                                                                                                                  **__*
    813                                                                                                                  *___*
    814                                                                                                                  *___*_
    815                                                                                                  */
    816          {       0x00, 0x10, 0xF4, 0x80, 0x00 },                 /* 69h 
    817                                                                                                                  _____
    818                                                                                                                  _____
    819                                                                                                                  __*__
    820                                                                                                                  _____
    821                                                                                                                  _**__
    822                                                                                                                  __*__
    823                                                                                                                  __*__
    824                                                                                                                  _***_
    825                                                                                                  */
    826          {       0x40, 0x90, 0xF4, 0x00, 0x00 },                 /* 6Ah 
    827                                                                                                                  _____
    828                                                                                                                  _____
    829                                                                                                                  __*__
    830                                                                                                                  _____
    831                                                                                                                  _**__
    832                                                                                                                  __*__
    833                                                                                                                  *_*__
    834                                                                                                                  _**__
    835                                                                                                  */
    836          {       0xFC, 0x40, 0x20, 0x50, 0x80 },                 /* 6Bh 
    837                                                                                                                  _____
    838                                                                                                                  _____
    839                                                                                                                  *____
    840                                                                                                                  *____
    841                                                                                                                  *__*_
    842                                                                                                                  *_*__
    843                                                                                                                  **_*_
    844                                                                                                                  *___*
    845                                                                                                  */
    846          {       0x00, 0x84, 0xFC, 0x80, 0x00 },                 /* 6Ch 
    847                                                                                                                  _____
    848                                                                                                                  _____
    849                                                                                                                  _**__
    850                                                                                                                  __*__
    851                                                                                                                  __*__
    852                                                                                                                  __*__
    853                                                                                                                  __*__
    854                                                                                                                  _***_
    855                                                                                                  */
    856          {       0xF8, 0x08, 0xF0, 0x08, 0xF0 },                 /* 6Dh 
    857                                                                                                                  _____
    858                                                                                                                  _____
    859                                                                                                                  _____
    860                                                                                                                  **_*_
    861                                                                                                                  *_*_*
    862                                                                                                                  *_*_*
    863                                                                                                                  *_*_*
    864                                                                                                                  *_*_*
    865                                                                                                  */
    866          {       0xF8, 0x10, 0x08, 0x08, 0xF0 },                 /* 6Eh 
    867                                                                                                                  _____
    868                                                                                                                  _____
    869                                                                                                                  _____
    870                                                                                                                  *_**_
    871                                                                                                                  **__*
    872                                                                                                                  *___*
    873                                                                                                                  *___*
    874                                                                                                                  *___*
    875                                                                                                  */
    876          {       0x70, 0x88, 0x88, 0x88, 0x70 },                 /* 6Fh 
    877                                                                                                                  _____
    878                                                                                                                  _____
    879                                                                                                                  _____
    880                                                                                                                  _***_
    881                                                                                                                  *___*
    882                                                                                                                  *___*
    883                                                                                                                  *___*
    884                                                                                                                  _***_
    885                                                                                                  */
    886          {       0xFC, 0x18, 0x24, 0x24, 0x18 },                 /* 70h 
    887                                                                                                                  _____
    888                                                                                                                  _____
    889                                                                                                                  *_**_
    890                                                                                                                  **__*
    891                                                                                                                  **__*
    892                                                                                                                  *_**_
    893                                                                                                                  *____
    894                                                                                                                  *____
    895                                                                                                  */
    896          {       0x18, 0x24, 0x24, 0x18, 0xFC },                 /* 71h 
    897                                                                                                                  _____
    898                                                                                                                  _____
    899                                                                                                                  _**_*_
    900                                                                                                                  *__**
    901                                                                                                                  *__**
    902                                                                                                                  _**_*
    903                                                                                                                  ____*
    904                                                                                                                  ____*
    905                                                                                                  */
    906          {       0xFC, 0x08, 0x04, 0x04, 0x08 },                 /* 72h 
    907                                                                                                                  _____
    908                                                                                                                  _____
    909                                                                                                                  *_**_
    910                                                                                                                  **__*
    911                                                                                                                  *____
    912                                                                                                                  *____
    913                                                                                                                  *____
    914                                                                                                                  *____
    915                                                                                                  */
    916          {       0x90, 0xA8, 0xA8, 0xA8, 0x48 },                 /* 73h 
    917                                                                                                                  _____
    918                                                                                                                  _____
    919                                                                                                                  _____
    920                                                                                                                  _****
    921                                                                                                                  *____
    922                                                                                                                  _***_
    923                                                                                                                  ____*
    924                                                                                                                  ****_
    925                                                                                                  */
    926          {       0x10, 0x10, 0xFC, 0x90, 0x40 },                 /* 74h 
    927                                                                                                                  _____
    928                                                                                                                  _____
    929                                                                                                                  __*__
    930                                                                                                                  __*__
    931                                                                                                                  ****_
    932                                                                                                                  __*__
    933                                                                                                                  __*_*
    934                                                                                                                  __**_
    935                                                                                                  */
    936          {       0x78, 0x80, 0x80, 0x40, 0xF8 },                 /* 75h 
    937                                                                                                                  _____
    938                                                                                                                  _____
    939                                                                                                                  _____
    940                                                                                                                  *___*
    941                                                                                                                  *___*
    942                                                                                                                  *___*
    943                                                                                                                  *__**
    944                                                                                                                  _**_*
    945                                                                                                  */
    946          {       0x38, 0x40, 0x80, 0x40, 0x38 },                 /* 76h 
    947                                                                                                                  _____
    948                                                                                                                  _____
    949                                                                                                                  _____
    950                                                                                                                  *___*
    951                                                                                                                  *___*
    952                                                                                                                  *___*
    953                                                                                                                  _*_*_
    954                                                                                                                  __*__
    955                                                                                                  */
    956          {       0x78, 0x00, 0xF0, 0x00, 0x78 },                 /* 77h 
    957                                                                                                                  _____
    958                                                                                                                  _____
    959                                                                                                                  _____
    960                                                                                                                  *___*
    961                                                                                                                  *_*_*
    962                                                                                                                  *_*_*
    963                                                                                                                  *_*_*
    964                                                                                                                  __*__
    965                                                                                                  */
    966          {       0x88, 0x50, 0x20, 0x50, 0x88 },                 /* 78h 
    967                                                                                                                  _____
    968                                                                                                                  _____
    969                                                                                                                  _____
    970                                                                                                                  *___*
    971                                                                                                                  _*_*_
    972                                                                                                                  __*__
    973                                                                                                                  _*_*_
    974                                                                                                                  *___*
    975                                                                                                  */
    976          {       0x18, 0xA0, 0xA0, 0x90, 0x78 },                 /* 79h 
    977                                                                                                                  _____
    978                                                                                                                  _____
    979                                                                                                                  _____
    980                                                                                                                  *___*
    981                                                                                                                  *__**
    982                                                                                                                  _**_*
    983                                                                                                                  ____*
    984                                                                                                                  _***_
    985                                                                                                  */
    986          {       0x88, 0xC8, 0xA8, 0xB8, 0x88 },                 /* 7Ah 
    987                                                                                                                  _____
    988                                                                                                                  _____
    989                                                                                                                  _____
    990                                                                                                                  *****
    991                                                                                                                  ___*_
    992                                                                                                                  __**_
    993                                                                                                                  _*___
    994                                                                                                                  *****
    995                                                                                                  */
    996          {       0x10, 0x6C, 0x82, 0x82, 0x82 },                 /* 7Bh 
    997                                                                                                                  _____
    998                                                                                                                  __***
    999                                                                                                                  _*___
   1000                                                                                                                  _*___
   1001                                                                                                                  *____
   1002                                                                                                                  _*___
   1003                                                                                                                  _*___
   1004                                                                                                                  __***
   1005                                                                                                  */
   1006          {       0x00, 0x00, 0x66, 0x00, 0x00 },                 /* 7Ch 
   1007                                                                                                                  _____
   1008                                                                                                                  __*__
   1009                                                                                                                  __*__
   1010                                                                                                                  _____
   1011                                                                                                                  _____
   1012                                                                                                                  __*__
   1013                                                                                                                  __*__
   1014                                                                                                                  _____
   1015                                                                                                  */
   1016          {       0x82, 0x82, 0x82, 0x6C, 0x10 },                 /* 7Dh 
   1017                                                                                                                  _____
   1018                                                                                                                  ***__
   1019                                                                                                                  ___*_
   1020                                                                                                                  ___*_
   1021                                                                                                                  ____*
   1022                                                                                                                  ___*_
   1023                                                                                                                  ___*_
   1024                                                                                                                  ***__
   1025                                                                                                  */
   1026          {       0x04, 0x02, 0x0E, 0x08, 0x04 },                 /* 7Eh 
   1027                                                                                                                  _____
   1028                                                                                                                  _**__
   1029                                                                                                                  *_*_*
   1030                                                                                                                  __**_
   1031                                                                                                                  _____
   1032                                                                                                                  _____
   1033                                                                                                                  _____
   1034                                                                                                                  _____
   1035                                                                                                  */
   1036          {       0xff, 0xff, 0xff, 0xff, 0xff },                 /* 7Fh */
   1037          };
   1038          
   1039          /*üEüEüEüEüEüEüEüEüEüEüEüEüEüEüEüEüEüEüEüEüEüEüEüEüEüEüEüEüEüEüEüEüEüEüEüEüEüE
   1040                          ŖOĢöÄQÅŲ
   1041          üEüEüEüEüEüEüEüEüEüEüEüEüEüEüEüEüEüEüEüEüEüEüEüEüEüEüEüEüEüEüEüEüEüEüEüEüEüE*/
   1042          
   1043          
   1044          /*üEüEüEüEüEüEüEüEüEüEüEüEüEüEüEüEüEüEüEüEüEüEüEüEüEüEüEüEüEüEüEüEüEüEüEüEüEüE
   1045                          āŹü[āJāŗĢŽÉö
   1046          üEüEüEüEüEüEüEüEüEüEüEüEüEüEüEüEüEüEüEüEüEüEüEüEüEüEüEüEüEüEüEüEüEüEüEüEüEüE*/
   1047          static  char    blinkCount;                                     /*ō_¢┼āJāEāōā^ü[*/
   1048          
   1049          /*@@@E*/
   1050          /************************************************************************
   1051          
   1052                  Function name   << mcpGetFont >>
   1053                                                  ékédécéųĢ\Ä”éĘéķātāHāōāgé­ōWŖJéĘéķ
   1054                  Syntax                  mcpGetFont( void );
   1055                  Argument                none
   1056                  Author                  TOA Corporation  K.Honda
   1057                  Revision                a00 2000/06/27
   1058          
   1059          *************************************************************************/
   1060          void mcpGetFont( void )
   1061          {
   \   0000  C5                PUSH    BC
   \   0001  D5                PUSH    DE
   \   0002  DDE5              PUSH    IX
   \   0004  DD210000          LD      IX,0
   \   0008  DD39              ADD     IX,SP
   \   000A  F5                PUSH    AF
   \   000B  F5                PUSH    AF
   \   000C  F5                PUSH    AF
   \   000D  F5                PUSH    AF
   1062                          int             i,j,k;
   1063                          char    *p;
   1064          
   1065                                  /* éqé`évāfü[ā^āGāŖāAéųÉ▌ÆĶ */
   1066                          if( sw_led!=now_sw_led ){
   \   000E  2A2000            LD      HL,(now_sw_led)
   \   0011  ED4B0000          LD      BC,(sw_led)
   \   0015  A7                AND     A
   \   0016  ED42              SBC     HL,BC
   \   0018  285E              JR      Z,?0001
   \   001A            ?0000:
   1067                                  now_sw_led = sw_led;
   \   001A  2A0000            LD      HL,(sw_led)
   \   001D  222000            LD      (now_sw_led),HL
   1068                                  for( i=0; i<16; i++ ){
   \   0020  AF                XOR     A
   \   0021  DD77F8            LD      (IX-8),A
   \   0024  DD77F9            LD      (IX-7),A
   \   0027            ?0003:
   \   0027  011080            LD      BC,32784
   \   002A  DD6EF8            LD      L,(IX-8)
   \   002D  DD66F9            LD      H,(IX-7)
   \   0030  3E80              LD      A,128
   \   0032  AC                XOR     H
   \   0033  67                LD      H,A
   \   0034  ED42              SBC     HL,BC
   \   0036  303D              JR      NC,?0002
   \   0038            ?0004:
   1069                                          rawData[i][8] = (char)(sw_led & 0x0FF);
   \   0038  010A00            LD      BC,10
   \   003B  DD5EF8            LD      E,(IX-8)
   \   003E  DD56F9            LD      D,(IX-7)
   \   0041  CD0000            CALL    ?S_MUL_L02
   \   0044  214800            LD      HL,rawData+8
   \   0047  19                ADD     HL,DE
   \   0048  3A0000            LD      A,(sw_led)
   \   004B  E6FF              AND     255
   \   004D  77                LD      (HL),A
   1070                                          rawData[i][9] = (char)((sw_led>>8) & 0x0FF);
   \   004E  010A00            LD      BC,10
   \   0051  DD5EF8            LD      E,(IX-8)
   \   0054  DD56F9            LD      D,(IX-7)
   \   0057  CD0000            CALL    ?S_MUL_L02
   \   005A  214900            LD      HL,rawData+9
   \   005D  19                ADD     HL,DE
   \   005E  0608              LD      B,8
   \   0060  ED5B0000          LD      DE,(sw_led)
   \   0064  CD0000            CALL    ?SS_RSH_L02
   \   0067  7B                LD      A,E
   \   0068  E6FF              AND     255
   \   006A  77                LD      (HL),A
   \   006B  DD34F8            INC     (IX-8)
   \   006E  2003              JR      NZ,?0061
   \   0070  DD34F9            INC     (IX-7)
   \   0073            ?0061:
   \   0073  18B2              JR      ?0003
   \   0075            ?0002:
   1071                                  }
   1072                                  watch_dog_reset();
   \   0075  CD0000            CALL    watch_dog_reset
   \   0078            ?0001:
   1073                          }
   1074                          if( sw_blink!=now_sw_blink ){
   \   0078  2A3A00            LD      HL,(now_sw_blink)
   \   007B  ED4B1A00          LD      BC,(sw_blink)
   \   007F  A7                AND     A
   \   0080  ED42              SBC     HL,BC
   \   0082  285E              JR      Z,?0007
   \   0084            ?0006:
   1075                                  now_sw_blink = sw_blink;
   \   0084  2A1A00            LD      HL,(sw_blink)
   \   0087  223A00            LD      (now_sw_blink),HL
   1076          
   1077                                  for( i=0; i<16; i++ ){
   \   008A  AF                XOR     A
   \   008B  DD77F8            LD      (IX-8),A
   \   008E  DD77F9            LD      (IX-7),A
   \   0091            ?0009:
   \   0091  011080            LD      BC,32784
   \   0094  DD6EF8            LD      L,(IX-8)
   \   0097  DD66F9            LD      H,(IX-7)
   \   009A  3E80              LD      A,128
   \   009C  AC                XOR     H
   \   009D  67                LD      H,A
   \   009E  ED42              SBC     HL,BC
   \   00A0  303D              JR      NC,?0008
   \   00A2            ?0010:
   1078                                          blinkPositionData[i][8] = (char)(sw_blink & 0x0FF);
   \   00A2  010A00            LD      BC,10
   \   00A5  DD5EF8            LD      E,(IX-8)
   \   00A8  DD56F9            LD      D,(IX-7)
   \   00AB  CD0000            CALL    ?S_MUL_L02
   \   00AE  21E800            LD      HL,blinkPositionData+8
   \   00B1  19                ADD     HL,DE
   \   00B2  3A1A00            LD      A,(sw_blink)
   \   00B5  E6FF              AND     255
   \   00B7  77                LD      (HL),A
   1079                                          blinkPositionData[i][9] = (char)((sw_blink>>8) & 0x0FF);
   \   00B8  010A00            LD      BC,10
   \   00BB  DD5EF8            LD      E,(IX-8)
   \   00BE  DD56F9            LD      D,(IX-7)
   \   00C1  CD0000            CALL    ?S_MUL_L02
   \   00C4  21E900            LD      HL,blinkPositionData+9
   \   00C7  19                ADD     HL,DE
   \   00C8  0608              LD      B,8
   \   00CA  ED5B1A00          LD      DE,(sw_blink)
   \   00CE  CD0000            CALL    ?SS_RSH_L02
   \   00D1  7B                LD      A,E
   \   00D2  E6FF              AND     255
   \   00D4  77                LD      (HL),A
   \   00D5  DD34F8            INC     (IX-8)
   \   00D8  2003              JR      NZ,?0062
   \   00DA  DD34F9            INC     (IX-7)
   \   00DD            ?0062:
   \   00DD  18B2              JR      ?0009
   \   00DF            ?0008:
   1080                                  }
   1081                                  watch_dog_reset();
   \   00DF  CD0000            CALL    watch_dog_reset
   \   00E2            ?0007:
   1082                          }
   1083          
   1084                                  /* ā}āgāŖābāNāXékédécé╠éqé`évāfü[ā^āGāŖāAéųé╠É▌ÆĶ */
   1085                          for( i=0; i<4; i++ ){
   \   00E2  AF                XOR     A
   \   00E3  DD77F8            LD      (IX-8),A
   \   00E6  DD77F9            LD      (IX-7),A
   \   00E9            ?0013:
   \   00E9  010480            LD      BC,32772
   \   00EC  DD6EF8            LD      L,(IX-8)
   \   00EF  DD66F9            LD      H,(IX-7)
   \   00F2  3E80              LD      A,128
   \   00F4  AC                XOR     H
   \   00F5  67                LD      H,A
   \   00F6  ED42              SBC     HL,BC
   \   00F8  D26B02            JP      NC,?0012
   \   00FB            ?0014:
   1086                                  for( j=0; j<6; j++ ){
   \   00FB  AF                XOR     A
   \   00FC  DD77FA            LD      (IX-6),A
   \   00FF  DD77FB            LD      (IX-5),A
   \   0102            ?0017:
   \   0102  010680            LD      BC,32774
   \   0105  DD6EFA            LD      L,(IX-6)
   \   0108  DD66FB            LD      H,(IX-5)
   \   010B  3E80              LD      A,128
   \   010D  AC                XOR     H
   \   010E  67                LD      H,A
   \   010F  ED42              SBC     HL,BC
   \   0111  D25D02            JP      NC,?0016
   \   0114            ?0018:
   1087                                          if( matrix_led[i][j]!=now_matrix_led[i][j] ){   /*ĢČÄÜŚ±ōÓŚeé¬ĢŽē╗éĄé─éóéķéŲé½ */
   \   0114  010600            LD      BC,6
   \   0117  DD5EF8            LD      E,(IX-8)
   \   011A  DD56F9            LD      D,(IX-7)
   \   011D  CD0000            CALL    ?S_MUL_L02
   \   0120  DD6EFA            LD      L,(IX-6)
   \   0123  DD66FB            LD      H,(IX-5)
   \   0126  19                ADD     HL,DE
   \   0127  012200            LD      BC,now_matrix_led
   \   012A  09                ADD     HL,BC
   \   012B  E5                PUSH    HL
   \   012C  010600            LD      BC,6
   \   012F  DD5EF8            LD      E,(IX-8)
   \   0132  DD56F9            LD      D,(IX-7)
   \   0135  CD0000            CALL    ?S_MUL_L02
   \   0138  DD6EFA            LD      L,(IX-6)
   \   013B  DD66FB            LD      H,(IX-5)
   \   013E  19                ADD     HL,DE
   \   013F  010200            LD      BC,matrix_led
   \   0142  09                ADD     HL,BC
   \   0143  7E                LD      A,(HL)
   \   0144  E1                POP     HL
   \   0145  BE                CP      (HL)
   \   0146  CA5202            JP      Z,?0021
   \   0149            ?0020:
   1088                                                  now_matrix_led[i][j] = matrix_led[i][j];
   \   0149  010600            LD      BC,6
   \   014C  DD5EF8            LD      E,(IX-8)
   \   014F  DD56F9            LD      D,(IX-7)
   \   0152  CD0000            CALL    ?S_MUL_L02
   \   0155  DD6EFA            LD      L,(IX-6)
   \   0158  DD66FB            LD      H,(IX-5)
   \   015B  19                ADD     HL,DE
   \   015C  010200            LD      BC,matrix_led
   \   015F  09                ADD     HL,BC
   \   0160  46                LD      B,(HL)
   \   0161  C5                PUSH    BC
   \   0162  110600            LD      DE,6
   \   0165  DD4EF8            LD      C,(IX-8)
   \   0168  DD46F9            LD      B,(IX-7)
   \   016B  CD0000            CALL    ?S_MUL_L02
   \   016E  DD6EFA            LD      L,(IX-6)
   \   0171  DD66FB            LD      H,(IX-5)
   \   0174  19                ADD     HL,DE
   \   0175  012200            LD      BC,now_matrix_led
   \   0178  09                ADD     HL,BC
   \   0179  C1                POP     BC
   \   017A  70                LD      (HL),B
   1089          
   1090                                                  p = (char *)font_data[matrix_led[i][j] & 0x7F]; /*ĢČÄÜé╠ātāHāōāgāfü[ā^é­ÄµéĶÅoéĄ*/
   \   017B  010600            LD      BC,6
   \   017E  DD5EF8            LD      E,(IX-8)
   \   0181  DD56F9            LD      D,(IX-7)
   \   0184  CD0000            CALL    ?S_MUL_L02
   \   0187  DD6EFA            LD      L,(IX-6)
   \   018A  DD66FB            LD      H,(IX-5)
   \   018D  19                ADD     HL,DE
   \   018E  010200            LD      BC,matrix_led
   \   0191  09                ADD     HL,BC
   \   0192  7E                LD      A,(HL)
   \   0193  E67F              AND     127
   \   0195  4F                LD      C,A
   \   0196  0600              LD      B,0
   \   0198  110500            LD      DE,5
   \   019B  CD0000            CALL    ?S_MUL_L02
   \   019E  210000            LD      HL,font_data
   \   01A1  19                ADD     HL,DE
   \   01A2  DD75FE            LD      (IX-2),L
   \   01A5  DD74FF            LD      (IX-1),H
   1091                                                  for( k=0; k<5; k++ ){                                   /* éqé`évāfü[ā^éŲéĄé─ōWŖJéĘéķ */
   \   01A8  AF                XOR     A
   \   01A9  DD77FC            LD      (IX-4),A
   \   01AC  DD77FD            LD      (IX-3),A
   \   01AF            ?0023:
   \   01AF  010580            LD      BC,32773
   \   01B2  DD6EFC            LD      L,(IX-4)
   \   01B5  DD66FD            LD      H,(IX-3)
   \   01B8  3E80              LD      A,128
   \   01BA  AC                XOR     H
   \   01BB  67                LD      H,A
   \   01BC  ED42              SBC     HL,BC
   \   01BE  D25202            JP      NC,?0022
   \   01C1            ?0024:
   1092                                                          if( j<3 ){
   \   01C1  010380            LD      BC,32771
   \   01C4  DD6EFA            LD      L,(IX-6)
   \   01C7  DD66FB            LD      H,(IX-5)
   \   01CA  3E80              LD      A,128
   \   01CC  AC                XOR     H
   \   01CD  67                LD      H,A
   \   01CE  ED42              SBC     HL,BC
   \   01D0  303A              JR      NC,?0027
   \   01D2            ?0026:
   1093                                                                  rawData[5*j+k][4+i] = *p++;
   \   01D2  010500            LD      BC,5
   \   01D5  DD5EFA            LD      E,(IX-6)
   \   01D8  DD56FB            LD      D,(IX-5)
   \   01DB  CD0000            CALL    ?S_MUL_L02
   \   01DE  DD6EFC            LD      L,(IX-4)
   \   01E1  DD66FD            LD      H,(IX-3)
   \   01E4  19                ADD     HL,DE
   \   01E5  4D                LD      C,L
   \   01E6  44                LD      B,H
   \   01E7  110A00            LD      DE,10
   \   01EA  CD0000            CALL    ?S_MUL_L02
   \   01ED  DD6EF8            LD      L,(IX-8)
   \   01F0  DD66F9            LD      H,(IX-7)
   \   01F3  19                ADD     HL,DE
   \   01F4  014400            LD      BC,rawData+4
   \   01F7  09                ADD     HL,BC
   \   01F8  E5                PUSH    HL
   \   01F9  DD6EFE            LD      L,(IX-2)
   \   01FC  DD66FF            LD      H,(IX-1)
   \   01FF  23                INC     HL
   \   0200  DD75FE            LD      (IX-2),L
   \   0203  DD74FF            LD      (IX-1),H
   \   0206  2B                DEC     HL
   \   0207  46                LD      B,(HL)
   \   0208  E1                POP     HL
   \   0209  70                LD      (HL),B
   1094                                                          }
   1095                                                          else {
   \   020A  183B              JR      ?0028
   \   020C            ?0027:
   1096                                                                  rawData[5*(j-3)+k][0+i] = *p++;
   \   020C  DD4EFA            LD      C,(IX-6)
   \   020F  DD46FB            LD      B,(IX-5)
   \   0212  0B                DEC     BC
   \   0213  0B                DEC     BC
   \   0214  0B                DEC     BC
   \   0215  110500            LD      DE,5
   \   0218  CD0000            CALL    ?S_MUL_L02
   \   021B  DD6EFC            LD      L,(IX-4)
   \   021E  DD66FD            LD      H,(IX-3)
   \   0221  19                ADD     HL,DE
   \   0222  4D                LD      C,L
   \   0223  44                LD      B,H
   \   0224  110A00            LD      DE,10
   \   0227  CD0000            CALL    ?S_MUL_L02
   \   022A  DD6EF8            LD      L,(IX-8)
   \   022D  DD66F9            LD      H,(IX-7)
   \   0230  19                ADD     HL,DE
   \   0231  014000            LD      BC,rawData
   \   0234  09                ADD     HL,BC
   \   0235  E5                PUSH    HL
   \   0236  DD6EFE            LD      L,(IX-2)
   \   0239  DD66FF            LD      H,(IX-1)
   \   023C  23                INC     HL
   \   023D  DD75FE            LD      (IX-2),L
   \   0240  DD74FF            LD      (IX-1),H
   \   0243  2B                DEC     HL
   \   0244  46                LD      B,(HL)
   \   0245  E1                POP     HL
   \   0246  70                LD      (HL),B
   \   0247            ?0028:
   \   0247  DD34FC            INC     (IX-4)
   \   024A  2003              JR      NZ,?0063
   \   024C  DD34FD            INC     (IX-3)
   \   024F            ?0063:
   1097                                                          }
   1098                                                  }
   1099                                          }
   \   024F  C3AF01            JP      ?0023
   \   0252            ?0022:
   \   0252            ?0021:
   \   0252  DD34FA            INC     (IX-6)
   \   0255  2003              JR      NZ,?0064
   \   0257  DD34FB            INC     (IX-5)
   \   025A            ?0064:
   \   025A  C30201            JP      ?0017
   \   025D            ?0016:
   1100                                  }
   1101                                  watch_dog_reset();
   \   025D  CD0000            CALL    watch_dog_reset
   \   0260  DD34F8            INC     (IX-8)
   \   0263  2003              JR      NZ,?0065
   \   0265  DD34F9            INC     (IX-7)
   \   0268            ?0065:
   \   0268  C3E900            JP      ?0013
   \   026B            ?0012:
   1102                          }
   1103          
   1104                          for( i=0; i<4; i++ ){
   \   026B  AF                XOR     A
   \   026C  DD77F8            LD      (IX-8),A
   \   026F  DD77F9            LD      (IX-7),A
   \   0272            ?0030:
   \   0272  010480            LD      BC,32772
   \   0275  DD6EF8            LD      L,(IX-8)
   \   0278  DD66F9            LD      H,(IX-7)
   \   027B  3E80              LD      A,128
   \   027D  AC                XOR     H
   \   027E  67                LD      H,A
   \   027F  ED42              SBC     HL,BC
   \   0281  D20604            JP      NC,?0029
   \   0284            ?0031:
   1105                                  if( matrix_blink[i]!=now_matrix_blink[i] ){
   \   0284  213C00            LD      HL,now_matrix_blink
   \   0287  DD4EF8            LD      C,(IX-8)
   \   028A  DD46F9            LD      B,(IX-7)
   \   028D  09                ADD     HL,BC
   \   028E  E5                PUSH    HL
   \   028F  211C00            LD      HL,matrix_blink
   \   0292  09                ADD     HL,BC
   \   0293  7E                LD      A,(HL)
   \   0294  E1                POP     HL
   \   0295  BE                CP      (HL)
   \   0296  CAF803            JP      Z,?0034
   \   0299            ?0033:
   1106                                          now_matrix_blink[i] = matrix_blink[i];
   \   0299  211C00            LD      HL,matrix_blink
   \   029C  DD4EF8            LD      C,(IX-8)
   \   029F  DD46F9            LD      B,(IX-7)
   \   02A2  09                ADD     HL,BC
   \   02A3  56                LD      D,(HL)
   \   02A4  213C00            LD      HL,now_matrix_blink
   \   02A7  09                ADD     HL,BC
   \   02A8  72                LD      (HL),D
   1107          
   1108                                          for( j=0; j<6; j++ ){
   \   02A9  AF                XOR     A
   \   02AA  DD77FA            LD      (IX-6),A
   \   02AD  DD77FB            LD      (IX-5),A
   \   02B0            ?0036:
   \   02B0  010680            LD      BC,32774
   \   02B3  DD6EFA            LD      L,(IX-6)
   \   02B6  DD66FB            LD      H,(IX-5)
   \   02B9  3E80              LD      A,128
   \   02BB  AC                XOR     H
   \   02BC  67                LD      H,A
   \   02BD  ED42              SBC     HL,BC
   \   02BF  D2F803            JP      NC,?0035
   \   02C2            ?0037:
   1109                                                  if( matrix_blink[i] & (0x0001<<j) ){
   \   02C2  211C00            LD      HL,matrix_blink
   \   02C5  DD4EF8            LD      C,(IX-8)
   \   02C8  DD46F9            LD      B,(IX-7)
   \   02CB  09                ADD     HL,BC
   \   02CC  DD46FA            LD      B,(IX-6)
   \   02CF  3E01              LD      A,1
   \   02D1  CD0000            CALL    ?C_LSH_L01
   \   02D4  A6                AND     (HL)
   \   02D5  CA6403            JP      Z,?0040
   \   02D8            ?0039:
   1110                                                          for( k=0; k<5; k++ ){
   \   02D8  AF                XOR     A
   \   02D9  DD77FC            LD      (IX-4),A
   \   02DC  DD77FD            LD      (IX-3),A
   \   02DF            ?0042:
   \   02DF  010580            LD      BC,32773
   \   02E2  DD6EFC            LD      L,(IX-4)
   \   02E5  DD66FD            LD      H,(IX-3)
   \   02E8  3E80              LD      A,128
   \   02EA  AC                XOR     H
   \   02EB  67                LD      H,A
   \   02EC  ED42              SBC     HL,BC
   \   02EE  3071              JR      NC,?0041
   \   02F0            ?0043:
   1111                                                                  if( j<3 ){
   \   02F0  010380            LD      BC,32771
   \   02F3  DD6EFA            LD      L,(IX-6)
   \   02F6  DD66FB            LD      H,(IX-5)
   \   02F9  3E80              LD      A,128
   \   02FB  AC                XOR     H
   \   02FC  67                LD      H,A
   \   02FD  ED42              SBC     HL,BC
   \   02FF  302A              JR      NC,?0046
   \   0301            ?0045:
   1112                                                                          blinkPositionData[5*j+k][4+i] = 0xFF;
   \   0301  010500            LD      BC,5
   \   0304  DD5EFA            LD      E,(IX-6)
   \   0307  DD56FB            LD      D,(IX-5)
   \   030A  CD0000            CALL    ?S_MUL_L02
   \   030D  DD6EFC            LD      L,(IX-4)
   \   0310  DD66FD            LD      H,(IX-3)
   \   0313  19                ADD     HL,DE
   \   0314  4D                LD      C,L
   \   0315  44                LD      B,H
   \   0316  110A00            LD      DE,10
   \   0319  CD0000            CALL    ?S_MUL_L02
   \   031C  DD6EF8            LD      L,(IX-8)
   \   031F  DD66F9            LD      H,(IX-7)
   \   0322  19                ADD     HL,DE
   \   0323  01E400            LD      BC,blinkPositionData+4
   \   0326  09                ADD     HL,BC
   \   0327  36FF              LD      (HL),255
   1113                                                                  }
   1114                                                                  else {
   \   0329  182B              JR      ?0047
   \   032B            ?0046:
   1115                                                                          blinkPositionData[5*(j-3)+k][0+i] = 0xFF;
   \   032B  DD4EFA            LD      C,(IX-6)
   \   032E  DD46FB            LD      B,(IX-5)
   \   0331  0B                DEC     BC
   \   0332  0B                DEC     BC
   \   0333  0B                DEC     BC
   \   0334  110500            LD      DE,5
   \   0337  CD0000            CALL    ?S_MUL_L02
   \   033A  DD6EFC            LD      L,(IX-4)
   \   033D  DD66FD            LD      H,(IX-3)
   \   0340  19                ADD     HL,DE
   \   0341  4D                LD      C,L
   \   0342  44                LD      B,H
   \   0343  110A00            LD      DE,10
   \   0346  CD0000            CALL    ?S_MUL_L02
   \   0349  DD6EF8            LD      L,(IX-8)
   \   034C  DD66F9            LD      H,(IX-7)
   \   034F  19                ADD     HL,DE
   \   0350  01E000            LD      BC,blinkPositionData
   \   0353  09                ADD     HL,BC
   \   0354  36FF              LD      (HL),255
   \   0356            ?0047:
   \   0356  DD34FC            INC     (IX-4)
   \   0359  2003              JR      NZ,?0066
   \   035B  DD34FD            INC     (IX-3)
   \   035E            ?0066:
   1116                                                                  }
   1117                                                          }
   1118                                                  }
   \   035E  C3DF02            JP      ?0042
   \   0361            ?0041:
   1119                                                  else {
   \   0361  C3ED03            JP      ?0048
   \   0364            ?0040:
   1120                                                          for( k=0; k<5; k++ ){
   \   0364  AF                XOR     A
   \   0365  DD77FC            LD      (IX-4),A
   \   0368  DD77FD            LD      (IX-3),A
   \   036B            ?0050:
   \   036B  010580            LD      BC,32773
   \   036E  DD6EFC            LD      L,(IX-4)
   \   0371  DD66FD            LD      H,(IX-3)
   \   0374  3E80              LD      A,128
   \   0376  AC                XOR     H
   \   0377  67                LD      H,A
   \   0378  ED42              SBC     HL,BC
   \   037A  3071              JR      NC,?0049
   \   037C            ?0051:
   1121                                                                  if( j<3 ){
   \   037C  010380            LD      BC,32771
   \   037F  DD6EFA            LD      L,(IX-6)
   \   0382  DD66FB            LD      H,(IX-5)
   \   0385  3E80              LD      A,128
   \   0387  AC                XOR     H
   \   0388  67                LD      H,A
   \   0389  ED42              SBC     HL,BC
   \   038B  302A              JR      NC,?0054
   \   038D            ?0053:
   1122                                                                          blinkPositionData[5*j+k][4+i] = 0x00;
   \   038D  010500            LD      BC,5
   \   0390  DD5EFA            LD      E,(IX-6)
   \   0393  DD56FB            LD      D,(IX-5)
   \   0396  CD0000            CALL    ?S_MUL_L02
   \   0399  DD6EFC            LD      L,(IX-4)
   \   039C  DD66FD            LD      H,(IX-3)
   \   039F  19                ADD     HL,DE
   \   03A0  4D                LD      C,L
   \   03A1  44                LD      B,H
   \   03A2  110A00            LD      DE,10
   \   03A5  CD0000            CALL    ?S_MUL_L02
   \   03A8  DD6EF8            LD      L,(IX-8)
   \   03AB  DD66F9            LD      H,(IX-7)
   \   03AE  19                ADD     HL,DE
   \   03AF  01E400            LD      BC,blinkPositionData+4
   \   03B2  09                ADD     HL,BC
   \   03B3  3600              LD      (HL),0
   1123                                                                  }
   1124                                                                  else {
   \   03B5  182B              JR      ?0055
   \   03B7            ?0054:
   1125                                                                          blinkPositionData[5*(j-3)+k][0+i] = 0x00;
   \   03B7  DD4EFA            LD      C,(IX-6)
   \   03BA  DD46FB            LD      B,(IX-5)
   \   03BD  0B                DEC     BC
   \   03BE  0B                DEC     BC
   \   03BF  0B                DEC     BC
   \   03C0  110500            LD      DE,5
   \   03C3  CD0000            CALL    ?S_MUL_L02
   \   03C6  DD6EFC            LD      L,(IX-4)
   \   03C9  DD66FD            LD      H,(IX-3)
   \   03CC  19                ADD     HL,DE
   \   03CD  4D                LD      C,L
   \   03CE  44                LD      B,H
   \   03CF  110A00            LD      DE,10
   \   03D2  CD0000            CALL    ?S_MUL_L02
   \   03D5  DD6EF8            LD      L,(IX-8)
   \   03D8  DD66F9            LD      H,(IX-7)
   \   03DB  19                ADD     HL,DE
   \   03DC  01E000            LD      BC,blinkPositionData
   \   03DF  09                ADD     HL,BC
   \   03E0  3600              LD      (HL),0
   \   03E2            ?0055:
   \   03E2  DD34FC            INC     (IX-4)
   \   03E5  2003              JR      NZ,?0067
   \   03E7  DD34FD            INC     (IX-3)
   \   03EA            ?0067:
   1126                                                                  }
   1127                                                          }
   1128                                                  }
   \   03EA  C36B03            JP      ?0050
   \   03ED            ?0049:
   \   03ED            ?0048:
   \   03ED  DD34FA            INC     (IX-6)
   \   03F0  2003              JR      NZ,?0068
   \   03F2  DD34FB            INC     (IX-5)
   \   03F5            ?0068:
   1129                                          }
   1130                                  }
   \   03F5  C3B002            JP      ?0036
   \   03F8            ?0035:
   \   03F8            ?0034:
   1131                                  watch_dog_reset();
   \   03F8  CD0000            CALL    watch_dog_reset
   \   03FB  DD34F8            INC     (IX-8)
   \   03FE  2003              JR      NZ,?0069
   \   0400  DD34F9            INC     (IX-7)
   \   0403            ?0069:
   1132                          }
   1133          
   1134          }
   \   0403  C37202            JP      ?0030
   \   0406            ?0029:
   \   0406  DDF9              LD      SP,IX
   \   0408  DDE1              POP     IX
   \   040A  D1                POP     DE
   \   040B  C1                POP     BC
   \   040C  C9                RET
   \   040D            mcpBlinkCount:
   1135          
   1136          /************************************************************************
   1137          
   1138                  Function name   << mcpBlinkCount >>
   1139                                          ō_¢┼āJāEāōā^ü[é╔éµé┴é─ō_ōöüEÅ┴ōöé╠ö╗ÆĶāfü[ā^é­ŹņÉ¼éĘéķ
   1140                  Syntax                  mcpBlinkCount( void );
   1141                  Argument                none
   1142                  Author                  TOA Corporation  K.Honda
   1143                  Revision                a00 2000/06/27
   1144          
   1145          *************************************************************************/
   1146          void mcpBlinkCount( void )
   1147          {
   1148                          if( blinkCount<25 ){            /*ō_ōöā^āCā~āōāO*/
   \   040D  3A8101            LD      A,(blinkCount)
   \   0410  FE19              CP      25
   \   0412  3007              JR      NC,?0057
   \   0414            ?0056:
   1149                                  blinkPositionCheck = 0x0ff;
   \   0414  3EFF              LD      A,255
   \   0416  328001            LD      (blinkPositionCheck),A
   1150                          }
   1151                          else {                                          /*Å┴ōöā^āCā~āōāO*/
   \   0419  1804              JR      ?0058
   \   041B            ?0057:
   1152                                  blinkPositionCheck = 0x000;
   \   041B  AF                XOR     A
   \   041C  328001            LD      (blinkPositionCheck),A
   \   041F            ?0058:
   1153                          }
   1154          
   1155                          blinkCount++;
   \   041F  218101            LD      HL,blinkCount
   \   0422  34                INC     (HL)
   1156                          if( blinkCount>=50 ){           /*éTéOéOéŹérāJāEāōāgé╠ā`āFābāN*/
   \   0423  3A8101            LD      A,(blinkCount)
   \   0426  FE32              CP      50
   \   0428  3804              JR      C,?0060
   \   042A            ?0059:
   1157                                  blinkCount=0;
   \   042A  AF                XOR     A
   \   042B  328101            LD      (blinkCount),A
   \   042E            ?0060:
   1158                          }
   1159          }
   \   042E  C9                RET
   \   042F            mcpDynamicScanDisplay:
   1160          
   1161          #if 0
   1162          /************************************************************************
   1163                                                                                                                                                          *
   1164                  Function name   << mcpMatrixOutput >>
   1165                                          ā}āgāŖābāNāXékédécéųé╠ÅoŚ═
   1166                  Syntax                  mcpMatrixOutput( void );
   1167                  Argument                none
   1168                  Author                  TOA Corporation  K.Honda
   1169                  Revision                a00 2000/06/27
   1170                                          a01 2000/09/07 āAāZāōāuāēü[āŗü[āeāBāōéųł┌ō«
   1171          
   1172          *************************************************************************/
   1173          void mcpMatrixOutput( void )
   1174          {
   1175                          int             i,j;
   1176          
   1177                                  /*éqé`évāfü[ā^é­ō_¢┼ł╩ÆuéŲō_¢┼ö╗ÆĶé┼ÅoŚ═ā^āCā~āōāOé­É▌ÆĶéĘéķ*/
   1178                          for( i=0; i<16; i++ ){
   1179                                  for( j=0; j<10; j++ ){
   1180                                          ledShiftData[i][j] = rawData[i][j] 
   1181                                                  & ~( blinkPositionData[i][j] & blinkPositionCheck );
   1182                                  }
   1183                                  watch_dog_reset();
   1184                          }
   1185          }
   1186          #endif
   1187          
   1188          /************************************************************************
   1189          
   1190                  Function name   << mcpDynamicScanDisplay >>
   1191                                                  ékédécéųĢ\Ä”éĘéķāüāCāōāŗü[āeāBāō
   1192                  Syntax                  mcpDynamicScanDisplay( void );
   1193                  Argument                none
   1194                  Author                  TOA Corporation  K.Honda
   1195                  Revision                a00 2000/06/27
   1196          
   1197          *************************************************************************/
   1198          void mcpDynamicScanDisplay( void )
   1199          {
   1200                          mcpGetFont();
   \   042F  CD0000            CALL    mcpGetFont
   1201          /*              mcpMatrixOutput(); */
   1202          }
   \   0432  C9                RET
   1203          
   \   0000                    RSEG    CONST
   \   0000            font_data:
   \   0000  00                DEFB    0
   \   0001  00                DEFB    0
   \   0002  00                DEFB    0
   \   0003  00                DEFB    0
   \   0004  00                DEFB    0
   \   0005  00                DEFB    0
   \   0006  00                DEFB    0
   \   0007  00                DEFB    0
   \   0008  00                DEFB    0
   \   0009  00                DEFB    0
   \   000A  00                DEFB    0
   \   000B  00                DEFB    0
   \   000C  00                DEFB    0
   \   000D  00                DEFB    0
   \   000E  00                DEFB    0
   \   000F  00                DEFB    0
   \   0010  00                DEFB    0
   \   0011  00                DEFB    0
   \   0012  00                DEFB    0
   \   0013  00                DEFB    0
   \   0014  00                DEFB    0
   \   0015  00                DEFB    0
   \   0016  00                DEFB    0
   \   0017  00                DEFB    0
   \   0018  00                DEFB    0
   \   0019  00                DEFB    0
   \   001A  00                DEFB    0
   \   001B  00                DEFB    0
   \   001C  00                DEFB    0
   \   001D  00                DEFB    0
   \   001E  00                DEFB    0
   \   001F  00                DEFB    0
   \   0020  00                DEFB    0
   \   0021  00                DEFB    0
   \   0022  00                DEFB    0
   \   0023  00                DEFB    0
   \   0024  00                DEFB    0
   \   0025  00                DEFB    0
   \   0026  00                DEFB    0
   \   0027  00                DEFB    0
   \   0028  00                DEFB    0
   \   0029  00                DEFB    0
   \   002A  00                DEFB    0
   \   002B  00                DEFB    0
   \   002C  00                DEFB    0
   \   002D  00                DEFB    0
   \   002E  00                DEFB    0
   \   002F  00                DEFB    0
   \   0030  00                DEFB    0
   \   0031  00                DEFB    0
   \   0032  00                DEFB    0
   \   0033  00                DEFB    0
   \   0034  00                DEFB    0
   \   0035  00                DEFB    0
   \   0036  00                DEFB    0
   \   0037  00                DEFB    0
   \   0038  00                DEFB    0
   \   0039  00                DEFB    0
   \   003A  00                DEFB    0
   \   003B  00                DEFB    0
   \   003C  00                DEFB    0
   \   003D  00                DEFB    0
   \   003E  00                DEFB    0
   \   003F  00                DEFB    0
   \   0040  00                DEFB    0
   \   0041  00                DEFB    0
   \   0042  00                DEFB    0
   \   0043  00                DEFB    0
   \   0044  00                DEFB    0
   \   0045  00                DEFB    0
   \   0046  00                DEFB    0
   \   0047  00                DEFB    0
   \   0048  00                DEFB    0
   \   0049  00                DEFB    0
   \   004A  00                DEFB    0
   \   004B  00                DEFB    0
   \   004C  00                DEFB    0
   \   004D  00                DEFB    0
   \   004E  00                DEFB    0
   \   004F  00                DEFB    0
   \   0050  00                DEFB    0
   \   0051  00                DEFB    0
   \   0052  00                DEFB    0
   \   0053  00                DEFB    0
   \   0054  00                DEFB    0
   \   0055  00                DEFB    0
   \   0056  00                DEFB    0
   \   0057  00                DEFB    0
   \   0058  00                DEFB    0
   \   0059  00                DEFB    0
   \   005A  00                DEFB    0
   \   005B  00                DEFB    0
   \   005C  00                DEFB    0
   \   005D  00                DEFB    0
   \   005E  00                DEFB    0
   \   005F  00                DEFB    0
   \   0060  00                DEFB    0
   \   0061  00                DEFB    0
   \   0062  00                DEFB    0
   \   0063  00                DEFB    0
   \   0064  00                DEFB    0
   \   0065  00                DEFB    0
   \   0066  00                DEFB    0
   \   0067  00                DEFB    0
   \   0068  00                DEFB    0
   \   0069  00                DEFB    0
   \   006A  00                DEFB    0
   \   006B  00                DEFB    0
   \   006C  00                DEFB    0
   \   006D  00                DEFB    0
   \   006E  00                DEFB    0
   \   006F  00                DEFB    0
   \   0070  00                DEFB    0
   \   0071  00                DEFB    0
   \   0072  00                DEFB    0
   \   0073  00                DEFB    0
   \   0074  00                DEFB    0
   \   0075  00                DEFB    0
   \   0076  00                DEFB    0
   \   0077  00                DEFB    0
   \   0078  00                DEFB    0
   \   0079  00                DEFB    0
   \   007A  00                DEFB    0
   \   007B  00                DEFB    0
   \   007C  00                DEFB    0
   \   007D  00                DEFB    0
   \   007E  00                DEFB    0
   \   007F  00                DEFB    0
   \   0080  00                DEFB    0
   \   0081  00                DEFB    0
   \   0082  00                DEFB    0
   \   0083  00                DEFB    0
   \   0084  00                DEFB    0
   \   0085  00                DEFB    0
   \   0086  00                DEFB    0
   \   0087  00                DEFB    0
   \   0088  00                DEFB    0
   \   0089  00                DEFB    0
   \   008A  00                DEFB    0
   \   008B  00                DEFB    0
   \   008C  00                DEFB    0
   \   008D  00                DEFB    0
   \   008E  00                DEFB    0
   \   008F  00                DEFB    0
   \   0090  00                DEFB    0
   \   0091  00                DEFB    0
   \   0092  00                DEFB    0
   \   0093  00                DEFB    0
   \   0094  00                DEFB    0
   \   0095  00                DEFB    0
   \   0096  00                DEFB    0
   \   0097  00                DEFB    0
   \   0098  00                DEFB    0
   \   0099  00                DEFB    0
   \   009A  00                DEFB    0
   \   009B  00                DEFB    0
   \   009C  00                DEFB    0
   \   009D  00                DEFB    0
   \   009E  00                DEFB    0
   \   009F  00                DEFB    0
   \   00A0  00                DEFB    0
   \   00A1  00                DEFB    0
   \   00A2  00                DEFB    0
   \   00A3  00                DEFB    0
   \   00A4  00                DEFB    0
   \   00A5  00                DEFB    0
   \   00A6  00                DEFB    0
   \   00A7  9E                DEFB    158
   \   00A8  00                DEFB    0
   \   00A9  00                DEFB    0
   \   00AA  00                DEFB    0
   \   00AB  0E                DEFB    14
   \   00AC  00                DEFB    0
   \   00AD  0E                DEFB    14
   \   00AE  00                DEFB    0
   \   00AF  28                DEFB    '('
   \   00B0  FE                DEFB    254
   \   00B1  28                DEFB    '('
   \   00B2  FE                DEFB    254
   \   00B3  28                DEFB    '('
   \   00B4  48                DEFB    'H'
   \   00B5  54                DEFB    'T'
   \   00B6  FE                DEFB    254
   \   00B7  54                DEFB    'T'
   \   00B8  24                DEFB    '$'
   \   00B9  86                DEFB    134
   \   00BA  66                DEFB    'f'
   \   00BB  10                DEFB    16
   \   00BC  CC                DEFB    204
   \   00BD  C2                DEFB    194
   \   00BE  68                DEFB    'h'
   \   00BF  94                DEFB    148
   \   00C0  B4                DEFB    180
   \   00C1  68                DEFB    'h'
   \   00C2  A0                DEFB    160
   \   00C3  00                DEFB    0
   \   00C4  08                DEFB    8
   \   00C5  04                DEFB    4
   \   00C6  02                DEFB    2
   \   00C7  00                DEFB    0
   \   00C8  38                DEFB    '8'
   \   00C9  44                DEFB    'D'
   \   00CA  82                DEFB    130
   \   00CB  00                DEFB    0
   \   00CC  00                DEFB    0
   \   00CD  00                DEFB    0
   \   00CE  00                DEFB    0
   \   00CF  82                DEFB    130
   \   00D0  44                DEFB    'D'
   \   00D1  38                DEFB    '8'
   \   00D2  54                DEFB    'T'
   \   00D3  38                DEFB    '8'
   \   00D4  FE                DEFB    254
   \   00D5  38                DEFB    '8'
   \   00D6  54                DEFB    'T'
   \   00D7  10                DEFB    16
   \   00D8  10                DEFB    16
   \   00D9  7C                DEFB    '|'
   \   00DA  10                DEFB    16
   \   00DB  10                DEFB    16
   \   00DC  00                DEFB    0
   \   00DD  80                DEFB    128
   \   00DE  60                DEFB    '`'
   \   00DF  00                DEFB    0
   \   00E0  00                DEFB    0
   \   00E1  10                DEFB    16
   \   00E2  10                DEFB    16
   \   00E3  10                DEFB    16
   \   00E4  10                DEFB    16
   \   00E5  10                DEFB    16
   \   00E6  00                DEFB    0
   \   00E7  00                DEFB    0
   \   00E8  60                DEFB    '`'
   \   00E9  60                DEFB    '`'
   \   00EA  00                DEFB    0
   \   00EB  80                DEFB    128
   \   00EC  60                DEFB    '`'
   \   00ED  10                DEFB    16
   \   00EE  0C                DEFB    12
   \   00EF  02                DEFB    2
   \   00F0  7C                DEFB    '|'
   \   00F1  A2                DEFB    162
   \   00F2  92                DEFB    146
   \   00F3  8A                DEFB    138
   \   00F4  7C                DEFB    '|'
   \   00F5  88                DEFB    136
   \   00F6  84                DEFB    132
   \   00F7  FE                DEFB    254
   \   00F8  80                DEFB    128
   \   00F9  80                DEFB    128
   \   00FA  C4                DEFB    196
   \   00FB  A2                DEFB    162
   \   00FC  B2                DEFB    178
   \   00FD  92                DEFB    146
   \   00FE  8C                DEFB    140
   \   00FF  44                DEFB    'D'
   \   0100  92                DEFB    146
   \   0101  92                DEFB    146
   \   0102  92                DEFB    146
   \   0103  6C                DEFB    'l'
   \   0104  30                DEFB    '0'
   \   0105  28                DEFB    '('
   \   0106  24                DEFB    '$'
   \   0107  FE                DEFB    254
   \   0108  20                DEFB    ' '
   \   0109  4E                DEFB    'N'
   \   010A  8A                DEFB    138
   \   010B  8A                DEFB    138
   \   010C  8A                DEFB    138
   \   010D  72                DEFB    'r'
   \   010E  7C                DEFB    '|'
   \   010F  92                DEFB    146
   \   0110  92                DEFB    146
   \   0111  92                DEFB    146
   \   0112  60                DEFB    '`'
   \   0113  06                DEFB    6
   \   0114  02                DEFB    2
   \   0115  E2                DEFB    226
   \   0116  12                DEFB    18
   \   0117  0E                DEFB    14
   \   0118  6C                DEFB    'l'
   \   0119  92                DEFB    146
   \   011A  92                DEFB    146
   \   011B  92                DEFB    146
   \   011C  6C                DEFB    'l'
   \   011D  0C                DEFB    12
   \   011E  92                DEFB    146
   \   011F  92                DEFB    146
   \   0120  92                DEFB    146
   \   0121  7C                DEFB    '|'
   \   0122  00                DEFB    0
   \   0123  00                DEFB    0
   \   0124  28                DEFB    '('
   \   0125  00                DEFB    0
   \   0126  00                DEFB    0
   \   0127  00                DEFB    0
   \   0128  80                DEFB    128
   \   0129  68                DEFB    'h'
   \   012A  00                DEFB    0
   \   012B  00                DEFB    0
   \   012C  10                DEFB    16
   \   012D  38                DEFB    '8'
   \   012E  6C                DEFB    'l'
   \   012F  C6                DEFB    198
   \   0130  82                DEFB    130
   \   0131  28                DEFB    '('
   \   0132  28                DEFB    '('
   \   0133  28                DEFB    '('
   \   0134  28                DEFB    '('
   \   0135  28                DEFB    '('
   \   0136  82                DEFB    130
   \   0137  C6                DEFB    198
   \   0138  6C                DEFB    'l'
   \   0139  38                DEFB    '8'
   \   013A  10                DEFB    16
   \   013B  04                DEFB    4
   \   013C  02                DEFB    2
   \   013D  B2                DEFB    178
   \   013E  0A                DEFB    10
   \   013F  04                DEFB    4
   \   0140  38                DEFB    '8'
   \   0141  54                DEFB    'T'
   \   0142  AA                DEFB    170
   \   0143  A2                DEFB    162
   \   0144  9C                DEFB    156
   \   0145  F8                DEFB    248
   \   0146  14                DEFB    20
   \   0147  12                DEFB    18
   \   0148  14                DEFB    20
   \   0149  F8                DEFB    248
   \   014A  82                DEFB    130
   \   014B  FE                DEFB    254
   \   014C  92                DEFB    146
   \   014D  92                DEFB    146
   \   014E  6C                DEFB    'l'
   \   014F  38                DEFB    '8'
   \   0150  44                DEFB    'D'
   \   0151  82                DEFB    130
   \   0152  82                DEFB    130
   \   0153  44                DEFB    'D'
   \   0154  82                DEFB    130
   \   0155  FE                DEFB    254
   \   0156  82                DEFB    130
   \   0157  44                DEFB    'D'
   \   0158  38                DEFB    '8'
   \   0159  FE                DEFB    254
   \   015A  92                DEFB    146
   \   015B  92                DEFB    146
   \   015C  92                DEFB    146
   \   015D  82                DEFB    130
   \   015E  FE                DEFB    254
   \   015F  12                DEFB    18
   \   0160  12                DEFB    18
   \   0161  12                DEFB    18
   \   0162  02                DEFB    2
   \   0163  7C                DEFB    '|'
   \   0164  82                DEFB    130
   \   0165  92                DEFB    146
   \   0166  92                DEFB    146
   \   0167  74                DEFB    't'
   \   0168  FE                DEFB    254
   \   0169  10                DEFB    16
   \   016A  10                DEFB    16
   \   016B  10                DEFB    16
   \   016C  FE                DEFB    254
   \   016D  00                DEFB    0
   \   016E  82                DEFB    130
   \   016F  FE                DEFB    254
   \   0170  82                DEFB    130
   \   0171  00                DEFB    0
   \   0172  40                DEFB    '@'
   \   0173  80                DEFB    128
   \   0174  82                DEFB    130
   \   0175  FE                DEFB    254
   \   0176  02                DEFB    2
   \   0177  FE                DEFB    254
   \   0178  10                DEFB    16
   \   0179  38                DEFB    '8'
   \   017A  44                DEFB    'D'
   \   017B  82                DEFB    130
   \   017C  FE                DEFB    254
   \   017D  80                DEFB    128
   \   017E  80                DEFB    128
   \   017F  80                DEFB    128
   \   0180  80                DEFB    128
   \   0181  FE                DEFB    254
   \   0182  04                DEFB    4
   \   0183  18                DEFB    24
   \   0184  04                DEFB    4
   \   0185  FE                DEFB    254
   \   0186  FE                DEFB    254
   \   0187  0C                DEFB    12
   \   0188  10                DEFB    16
   \   0189  60                DEFB    '`'
   \   018A  FE                DEFB    254
   \   018B  38                DEFB    '8'
   \   018C  44                DEFB    'D'
   \   018D  82                DEFB    130
   \   018E  44                DEFB    'D'
   \   018F  38                DEFB    '8'
   \   0190  FE                DEFB    254
   \   0191  12                DEFB    18
   \   0192  12                DEFB    18
   \   0193  12                DEFB    18
   \   0194  0C                DEFB    12
   \   0195  38                DEFB    '8'
   \   0196  44                DEFB    'D'
   \   0197  A2                DEFB    162
   \   0198  44                DEFB    'D'
   \   0199  B8                DEFB    184
   \   019A  FE                DEFB    254
   \   019B  12                DEFB    18
   \   019C  32                DEFB    '2'
   \   019D  52                DEFB    'R'
   \   019E  8C                DEFB    140
   \   019F  4C                DEFB    'L'
   \   01A0  92                DEFB    146
   \   01A1  92                DEFB    146
   \   01A2  92                DEFB    146
   \   01A3  64                DEFB    'd'
   \   01A4  02                DEFB    2
   \   01A5  02                DEFB    2
   \   01A6  FE                DEFB    254
   \   01A7  02                DEFB    2
   \   01A8  02                DEFB    2
   \   01A9  7E                DEFB    '~'
   \   01AA  80                DEFB    128
   \   01AB  80                DEFB    128
   \   01AC  80                DEFB    128
   \   01AD  7E                DEFB    '~'
   \   01AE  0E                DEFB    14
   \   01AF  70                DEFB    'p'
   \   01B0  80                DEFB    128
   \   01B1  70                DEFB    'p'
   \   01B2  0E                DEFB    14
   \   01B3  FE                DEFB    254
   \   01B4  40                DEFB    '@'
   \   01B5  30                DEFB    '0'
   \   01B6  40                DEFB    '@'
   \   01B7  FE                DEFB    254
   \   01B8  C6                DEFB    198
   \   01B9  28                DEFB    '('
   \   01BA  10                DEFB    16
   \   01BB  28                DEFB    '('
   \   01BC  C6                DEFB    198
   \   01BD  0E                DEFB    14
   \   01BE  10                DEFB    16
   \   01BF  E0                DEFB    224
   \   01C0  10                DEFB    16
   \   01C1  0E                DEFB    14
   \   01C2  C2                DEFB    194
   \   01C3  A2                DEFB    162
   \   01C4  92                DEFB    146
   \   01C5  8A                DEFB    138
   \   01C6  86                DEFB    134
   \   01C7  00                DEFB    0
   \   01C8  FE                DEFB    254
   \   01C9  82                DEFB    130
   \   01CA  82                DEFB    130
   \   01CB  00                DEFB    0
   \   01CC  56                DEFB    'V'
   \   01CD  58                DEFB    'X'
   \   01CE  F0                DEFB    240
   \   01CF  58                DEFB    'X'
   \   01D0  56                DEFB    'V'
   \   01D1  00                DEFB    0
   \   01D2  82                DEFB    130
   \   01D3  82                DEFB    130
   \   01D4  FE                DEFB    254
   \   01D5  00                DEFB    0
   \   01D6  08                DEFB    8
   \   01D7  04                DEFB    4
   \   01D8  02                DEFB    2
   \   01D9  04                DEFB    4
   \   01DA  08                DEFB    8
   \   01DB  80                DEFB    128
   \   01DC  80                DEFB    128
   \   01DD  80                DEFB    128
   \   01DE  80                DEFB    128
   \   01DF  80                DEFB    128
   \   01E0  00                DEFB    0
   \   01E1  00                DEFB    0
   \   01E2  02                DEFB    2
   \   01E3  04                DEFB    4
   \   01E4  08                DEFB    8
   \   01E5  40                DEFB    '@'
   \   01E6  A8                DEFB    168
   \   01E7  A8                DEFB    168
   \   01E8  78                DEFB    'x'
   \   01E9  80                DEFB    128
   \   01EA  FC                DEFB    252
   \   01EB  20                DEFB    ' '
   \   01EC  90                DEFB    144
   \   01ED  90                DEFB    144
   \   01EE  60                DEFB    '`'
   \   01EF  70                DEFB    'p'
   \   01F0  88                DEFB    136
   \   01F1  88                DEFB    136
   \   01F2  88                DEFB    136
   \   01F3  50                DEFB    'P'
   \   01F4  60                DEFB    '`'
   \   01F5  90                DEFB    144
   \   01F6  90                DEFB    144
   \   01F7  20                DEFB    ' '
   \   01F8  FC                DEFB    252
   \   01F9  70                DEFB    'p'
   \   01FA  A8                DEFB    168
   \   01FB  A8                DEFB    168
   \   01FC  A8                DEFB    168
   \   01FD  30                DEFB    '0'
   \   01FE  10                DEFB    16
   \   01FF  10                DEFB    16
   \   0200  FE                DEFB    254
   \   0201  12                DEFB    18
   \   0202  14                DEFB    20
   \   0203  18                DEFB    24
   \   0204  A4                DEFB    164
   \   0205  A4                DEFB    164
   \   0206  98                DEFB    152
   \   0207  7C                DEFB    '|'
   \   0208  FC                DEFB    252
   \   0209  20                DEFB    ' '
   \   020A  10                DEFB    16
   \   020B  10                DEFB    16
   \   020C  E0                DEFB    224
   \   020D  00                DEFB    0
   \   020E  10                DEFB    16
   \   020F  F4                DEFB    244
   \   0210  80                DEFB    128
   \   0211  00                DEFB    0
   \   0212  40                DEFB    '@'
   \   0213  90                DEFB    144
   \   0214  F4                DEFB    244
   \   0215  00                DEFB    0
   \   0216  00                DEFB    0
   \   0217  FC                DEFB    252
   \   0218  40                DEFB    '@'
   \   0219  20                DEFB    ' '
   \   021A  50                DEFB    'P'
   \   021B  80                DEFB    128
   \   021C  00                DEFB    0
   \   021D  84                DEFB    132
   \   021E  FC                DEFB    252
   \   021F  80                DEFB    128
   \   0220  00                DEFB    0
   \   0221  F8                DEFB    248
   \   0222  08                DEFB    8
   \   0223  F0                DEFB    240
   \   0224  08                DEFB    8
   \   0225  F0                DEFB    240
   \   0226  F8                DEFB    248
   \   0227  10                DEFB    16
   \   0228  08                DEFB    8
   \   0229  08                DEFB    8
   \   022A  F0                DEFB    240
   \   022B  70                DEFB    'p'
   \   022C  88                DEFB    136
   \   022D  88                DEFB    136
   \   022E  88                DEFB    136
   \   022F  70                DEFB    'p'
   \   0230  FC                DEFB    252
   \   0231  18                DEFB    24
   \   0232  24                DEFB    '$'
   \   0233  24                DEFB    '$'
   \   0234  18                DEFB    24
   \   0235  18                DEFB    24
   \   0236  24                DEFB    '$'
   \   0237  24                DEFB    '$'
   \   0238  18                DEFB    24
   \   0239  FC                DEFB    252
   \   023A  FC                DEFB    252
   \   023B  08                DEFB    8
   \   023C  04                DEFB    4
   \   023D  04                DEFB    4
   \   023E  08                DEFB    8
   \   023F  90                DEFB    144
   \   0240  A8                DEFB    168
   \   0241  A8                DEFB    168
   \   0242  A8                DEFB    168
   \   0243  48                DEFB    'H'
   \   0244  10                DEFB    16
   \   0245  10                DEFB    16
   \   0246  FC                DEFB    252
   \   0247  90                DEFB    144
   \   0248  40                DEFB    '@'
   \   0249  78                DEFB    'x'
   \   024A  80                DEFB    128
   \   024B  80                DEFB    128
   \   024C  40                DEFB    '@'
   \   024D  F8                DEFB    248
   \   024E  38                DEFB    '8'
   \   024F  40                DEFB    '@'
   \   0250  80                DEFB    128
   \   0251  40                DEFB    '@'
   \   0252  38                DEFB    '8'
   \   0253  78                DEFB    'x'
   \   0254  00                DEFB    0
   \   0255  F0                DEFB    240
   \   0256  00                DEFB    0
   \   0257  78                DEFB    'x'
   \   0258  88                DEFB    136
   \   0259  50                DEFB    'P'
   \   025A  20                DEFB    ' '
   \   025B  50                DEFB    'P'
   \   025C  88                DEFB    136
   \   025D  18                DEFB    24
   \   025E  A0                DEFB    160
   \   025F  A0                DEFB    160
   \   0260  90                DEFB    144
   \   0261  78                DEFB    'x'
   \   0262  88                DEFB    136
   \   0263  C8                DEFB    200
   \   0264  A8                DEFB    168
   \   0265  B8                DEFB    184
   \   0266  88                DEFB    136
   \   0267  10                DEFB    16
   \   0268  6C                DEFB    'l'
   \   0269  82                DEFB    130
   \   026A  82                DEFB    130
   \   026B  82                DEFB    130
   \   026C  00                DEFB    0
   \   026D  00                DEFB    0
   \   026E  66                DEFB    'f'
   \   026F  00                DEFB    0
   \   0270  00                DEFB    0
   \   0271  82                DEFB    130
   \   0272  82                DEFB    130
   \   0273  82                DEFB    130
   \   0274  6C                DEFB    'l'
   \   0275  10                DEFB    16
   \   0276  04                DEFB    4
   \   0277  02                DEFB    2
   \   0278  0E                DEFB    14
   \   0279  08                DEFB    8
   \   027A  04                DEFB    4
   \   027B  FF                DEFB    255
   \   027C  FF                DEFB    255
   \   027D  FF                DEFB    255
   \   027E  FF                DEFB    255
   \   027F  FF                DEFB    255
   \   0000                    RSEG    UDATA0
   \   0000            sw_led:
   \   0002                    DEFS    2
   \   0002            matrix_led:
   \   001A                    DEFS    24
   \   001A            sw_blink:
   \   001C                    DEFS    2
   \   001C            matrix_blink:
   \   0020                    DEFS    4
   \   0020            now_sw_led:
   \   0022                    DEFS    2
   \   0022            now_matrix_led:
   \   003A                    DEFS    24
   \   003A            now_sw_blink:
   \   003C                    DEFS    2
   \   003C            now_matrix_blink:
   \   0040                    DEFS    4
   \   0040            rawData:
   \   00E0                    DEFS    160
   \   00E0            blinkPositionData:
   \   0180                    DEFS    160
   \   0180            blinkPositionCheck:
   \   0181                    DEFS    1
   \   0181            blinkCount:
   \   0182                    DEFS    1
   \   0182                    END

Errors: none
Warnings: none
Code size: 1075
Constant size: 640
Static variable size: Data(386) Iram(0)

