##############################################################################
#                                                                            #
# IAR Z80/64180 C-Compiler V4.04D/386                                        #
# Front End V4.20N                                     07/Jul/2003  14:29:28 #
# Global Optimizer V1.05D                                                    #
#                                                                            #
#       Target option =  64180                                               #
#       Memory model  =  large                                               #
#       Source file   =  .\src\paamain.c                                     #
#       List file     =  .\obj\paamain.lst                                   #
#       Object file   =  .\obj\paamain.r01                                   #
#       ASM file      =  .\obj\paamain.s01                                   #
#       Command line  =  .\src\paaMain.c -o .\obj\paaMain.r01 -P -gA -s -v1  #
#                        -rn -ml -I.\inc\ -I..\comminc\ -DSIM=0 -a           #
#                        .\obj\paaMain.s01 -l .\obj\paaMain.lst -q           #
#                                                                            #
#                                             (c) Copyright IAR Systems 1996 #
##############################################################################

   \   0000                    NAME    paamain(16)
   \   0000                    RSEG    CODE(0)
   \   0000                    RSEG    UDATA0(0)
   \   0000                    EXTERN  __enable
   \   0000                    EXTERN  address
   \   0000                    EXTERN  address2
   \   0000                    EXTERN  csio_output
   \   0000                    EXTERN  initial_voice_level
   \   0000                    EXTERN  io_output_off1
   \   0000                    EXTERN  io_output_off2
   \   0000                    EXTERN  io_output_off3
   \   0000                    EXTERN  io_output_off4
   \   0000                    EXTERN  io_output_on1
   \   0000                    EXTERN  io_output_on2
   \   0000                    EXTERN  io_output_on3
   \   0000                    PUBLIC  main
   \   0000                    EXTERN  paaExecuteMode
   \   0000                    EXTERN  paaGetMode
   \   0000                    EXTERN  paaInitialize
   \   0000                    EXTERN  paaLEDOUT
   \   0000                    EXTERN  paaSetVolume
   \   0000                    EXTERN  prg_version
   \   0000                    EXTERN  read_dipsw
   \   0000                    EXTERN  sendarea
   \   0000                    EXTERN  switch_read
   \   0000                    EXTERN  voice_bus_mode
   \   0000                    EXTERN  watch_dog_reset
   \   0000                    EXTERN  ?CL64180L_4_04_L00
   \   0000                    EXTERN  ?US_RSH_L02
   \   0000                    RSEG    CODE
   \   0000            main:
      1          /********************************************************************
      2                  【香港地下鉄向け自動列車放送制御装置】
      3          *-------------------------------------------------------------------*
      4                  メイン制御モジュール
      5          *-------------------------------------------------------------------*
      6                  Author          TOA Corporation
      7          
      8                  Revision        a00. 2000/06/27         K.Honda
      9          
     10          *********************************************************************/
     11          
     12          #include "IOFUNC.h"
     13          
     14          #include "COMMDEF.h"
     15          
     16          /*@@@S*/
     17          /*・・・・・・・・・・・・・・・・・・・・・・・・・・・・・・・・・・・・・・
     18                  グローバル変数
     19          ・・・・・・・・・・・・・・・・・・・・・・・・・・・・・・・・・・・・・・*/
     20          
     21          /*・・・・・・・・・・・・・・・・・・・・・・・・・・・・・・・・・・・・・・
     22                  ローカル定数定義
     23          ・・・・・・・・・・・・・・・・・・・・・・・・・・・・・・・・・・・・・・*/
     24          
     25          
     26          /*・・・・・・・・・・・・・・・・・・・・・・・・・・・・・・・・・・・・・・
     27                  ローカル構造体定義
     28          ・・・・・・・・・・・・・・・・・・・・・・・・・・・・・・・・・・・・・・*/
     29          
     30          /*・・・・・・・・・・・・・・・・・・・・・・・・・・・・・・・・・・・・・・
     31                  ローカルテーブル
     32          ・・・・・・・・・・・・・・・・・・・・・・・・・・・・・・・・・・・・・・*/
     33          
     34          
     35          /*・・・・・・・・・・・・・・・・・・・・・・・・・・・・・・・・・・・・・・
     36                          外部参照
     37          ・・・・・・・・・・・・・・・・・・・・・・・・・・・・・・・・・・・・・・*/
     38          
     39          extern  void paaInitialize(void);
     40          extern  void paaGetMode(void);
     41          extern  void paaSetVolume(void);
     42          extern  void paaExecuteMode(void);
     43          extern  void paaLEDOUT(void);
     44          
     45          /** 自アドレス **/
     46          extern  unsigned short  address;                        /* 上位１２ビット＝Ｃａｒ　Ｎｏ．
     47                                                                                             下位４ビット＝ＤＩＰＳＷアドレス */
     48          
     49          extern  unsigned short  address2;                       /* 上位１２ビット＝Ｃａｒ　Ｎｏ．
     50                                                                                             下位４ビット＝ＤＩＰＳＷアドレス */
     51          
     52          /** 送信エリア **/
     53          extern  struct PAASEND  sendarea;
     54          
     55          /** スイッチデータ **/
     56          extern  short   nowReadIO;
     57          #define IN_24V  0x1000
     58          #define AMPON1  0x0400
     59          #define AMPON2  0x0800
     60          #define MICON   0x0020
     61          
     62          /** 音声バスモード **/
     63          extern  char    voice_bus_mode;
     64          extern  char    initial_voice_level;    /*基本音量データ
     65                                                                                  下位６ビットのみ使用
     66                                                                          */
     67          /*・・・・・・・・・・・・・・・・・・・・・・・・・・・・・・・・・・・・・・
     68                          ローカル変数
     69          ・・・・・・・・・・・・・・・・・・・・・・・・・・・・・・・・・・・・・・*/
     70          static  char    readCount;
     71          static  short   preReadIO;
     72          
     73          /*@@@E*/
     74          /************************************************************************
     75          
     76                  Function name   << main >>
     77                                                  メイン関数
     78                  Syntax                  main( void );
     79                  Argument                none
     80                  Author                  TOA Corporation  K.Honda
     81                  Revision                a00 2000/06/27
     82                                                  a01 2003/07/07  h.nisiura AGC初期値を12→8に変更
     83          *************************************************************************/
     84          void main( void )
     85          {
   \   0000  DDE5              PUSH    IX
   \   0002  DD210000          LD      IX,0
   \   0006  DD39              ADD     IX,SP
   \   0008  21F6FF            LD      HL,65526
   \   000B  39                ADD     HL,SP
   \   000C  F9                LD      SP,HL
     86                          int             dipsw;
     87                          unsigned short  swdata;
     88                          union {
     89                                  unsigned short  WORD;
     90                                  unsigned char   BYTE[2];
     91                          } swapdata;
     92                          unsigned char   data;
     93                          unsigned short  setValue;
     94          
     95                          io_output_off1( 0xFF );         /* ALL I/O OFF */
   \   000D  1EFF              LD      E,255
   \   000F  CD0000            CALL    io_output_off1
     96                          io_output_off2( 0xFF );
   \   0012  1EFF              LD      E,255
   \   0014  CD0000            CALL    io_output_off2
     97                          io_output_off3( 0xFF );
   \   0017  1EFF              LD      E,255
   \   0019  CD0000            CALL    io_output_off3
     98                          io_output_off4( 0xFF );
   \   001C  1EFF              LD      E,255
   \   001E  CD0000            CALL    io_output_off4
     99          
    100                          /** 初期Ｉ／Ｏ値 **/
    101                          io_output_on1( 0xFF );
   \   0021  1EFF              LD      E,255
   \   0023  CD0000            CALL    io_output_on1
    102                          io_output_on2( 0xFF );
   \   0026  1EFF              LD      E,255
   \   0028  CD0000            CALL    io_output_on2
    103                          io_output_on3( 0x00 );
   \   002B  1E00              LD      E,0
   \   002D  CD0000            CALL    io_output_on3
    104          
    105                          paaInitialize();
   \   0030  CD0000            CALL    paaInitialize
    106          
    107                          io_output_on3( 0x80 );          /* Watch Dog Enable */
   \   0033  1E80              LD      E,128
   \   0035  CD0000            CALL    io_output_on3
    108          
    109                          dipsw = read_dipsw();
   \   0038  CD0000            CALL    read_dipsw
   \   003B  DD75F6            LD      (IX-10),L
   \   003E  DD74F7            LD      (IX-9),H
    110                          swdata = switch_read();
   \   0041  CD0000            CALL    switch_read
   \   0044  DD75F8            LD      (IX-8),L
   \   0047  DD74F9            LD      (IX-7),H
    111          
    112                          address2 = ((swdata>>13)+1) & 0x0F;
   \   004A  060D              LD      B,13
   \   004C  EB                EX      DE,HL
   \   004D  CD0000            CALL    ?US_RSH_L02
   \   0050  13                INC     DE
   \   0051  7B                LD      A,E
   \   0052  E60F              AND     15
   \   0054  6F                LD      L,A
   \   0055  7A                LD      A,D
   \   0056  E600              AND     0
   \   0058  67                LD      H,A
   \   0059  220000            LD      (address2),HL
    113          
    114                          address &= 0x0F0FF;
   \   005C  210000            LD      HL,address
   \   005F  7E                LD      A,(HL)
   \   0060  E6FF              AND     255
   \   0062  77                LD      (HL),A
   \   0063  23                INC     HL
   \   0064  7E                LD      A,(HL)
   \   0065  E6F0              AND     240
   \   0067  77                LD      (HL),A
    115                          address |= (address2 << 8) & 0x0F00;
   \   0068  2A0000            LD      HL,(address2)
   \   006B  65                LD      H,L
   \   006C  2E00              LD      L,0
   \   006E  7D                LD      A,L
   \   006F  E600              AND     0
   \   0071  4F                LD      C,A
   \   0072  7C                LD      A,H
   \   0073  E60F              AND     15
   \   0075  47                LD      B,A
   \   0076  210000            LD      HL,address
   \   0079  7E                LD      A,(HL)
   \   007A  B1                OR      C
   \   007B  77                LD      (HL),A
   \   007C  23                INC     HL
   \   007D  7E                LD      A,(HL)
   \   007E  B0                OR      B
   \   007F  77                LD      (HL),A
    116          
    117                          sendarea.dataid = 0;
   \   0080  AF                XOR     A
   \   0081  320200            LD      (sendarea+2),A
    118                          sendarea.rscsw = 0;
   \   0084  AF                XOR     A
   \   0085  320300            LD      (sendarea+3),A
    119                          sendarea.trouble = 0;
   \   0088  AF                XOR     A
   \   0089  320400            LD      (sendarea+4),A
    120                          swapdata.WORD = prg_version;
   \   008C  2A0000            LD      HL,(prg_version)
   \   008F  DD75FA            LD      (IX-6),L
   \   0092  DD74FB            LD      (IX-5),H
    121                          data = swapdata.BYTE[0];
   \   0095  DD46FA            LD      B,(IX-6)
   \   0098  DD70FC            LD      (IX-4),B
    122                          swapdata.BYTE[0] = swapdata.BYTE[1];
   \   009B  DD4EFB            LD      C,(IX-5)
   \   009E  DD71FA            LD      (IX-6),C
    123                          swapdata.BYTE[1] = data;
   \   00A1  DD70FB            LD      (IX-5),B
    124                          sendarea.version = swapdata.WORD;
   \   00A4  DD6EFA            LD      L,(IX-6)
   \   00A7  DD66FB            LD      H,(IX-5)
   \   00AA  220500            LD      (sendarea+5),HL
    125          
    126                          voice_bus_mode = 0xFF;
   \   00AD  3EFF              LD      A,255
   \   00AF  320000            LD      (voice_bus_mode),A
    127          
    128                          initial_voice_level = 8;                        /* 音量の初期値は　-8dB */
   \   00B2  3E08              LD      A,8
   \   00B4  320000            LD      (initial_voice_level),A
    129                          setValue = ((unsigned short)initial_voice_level<<2)+0x1803;     /* Left,Right Set */
   \   00B7  6F                LD      L,A
   \   00B8  2600              LD      H,0
   \   00BA  29                ADD     HL,HL
   \   00BB  29                ADD     HL,HL
   \   00BC  010318            LD      BC,6147
   \   00BF  09                ADD     HL,BC
   \   00C0  DD75FD            LD      (IX-3),L
   \   00C3  DD74FE            LD      (IX-2),H
    130                          csio_output( setValue );                /* 出力 ( 13 bit )*/
   \   00C6  5D                LD      E,L
   \   00C7  CD0000            CALL    csio_output
    131          
    132                          __enable();
   \   00CA  CD0000            CALL    __enable
   \   00CD            ?0001:
    133          
    134                          for( ;; ){
    135                                  paaGetMode();
   \   00CD  CD0000            CALL    paaGetMode
    136                                  paaSetVolume();
   \   00D0  CD0000            CALL    paaSetVolume
    137                                  paaExecuteMode();
   \   00D3  CD0000            CALL    paaExecuteMode
    138                                  paaLEDOUT();
   \   00D6  CD0000            CALL    paaLEDOUT
    139          
    140                                  watch_dog_reset();
   \   00D9  CD0000            CALL    watch_dog_reset
    141                          }
    142          }
   \   00DC  18EF              JR      ?0001
    143          
   \   0000                    RSEG    UDATA0
   \   0000            readCount:
   \   0001                    DEFS    1
   \   0001            preReadIO:
   \   0003                    DEFS    2
   \   0003                    END

Errors: none
Warnings: none
Code size: 222
Constant size: 0
Static variable size: Data(3) Iram(0)

